Archive member included because of file (symbol)

../../ecrobot/../ecrobot/libecrobot.a(ecrobot_HiTechnic.o)
                              build/tetrix.o (ecrobot_init_tetrix)
../../ecrobot/../ecrobot/libecrobot.a(ecrobot_interface.o)
                              ../../ecrobot/../ecrobot/libecrobot.a(ecrobot_HiTechnic.o) (ecrobot_init_i2c)
../../ecrobot/../ecrobot/libecrobot.a(colorsensor.o)
                              ../../ecrobot/../ecrobot/libecrobot.a(ecrobot_interface.o) (colorsensor_init)
../../ecrobot/../ecrobot/libecrobot.a(osek_hook.o)
                              build/kernel/osctl.o (StartupHook)
../../ecrobot/../ecrobot/libecrobot.a(uart.oram)
                              build/config/at91sam7s-gnu/irq.oram (uart_isr_C_0)
../../ecrobot/../ecrobot/libecrobot.a(systick.oram)
                              build/syslib/at91sam7s-gnu/lego_nxt/hw_sys_timer.oram (systick_low_priority_C)
../../ecrobot/../ecrobot/libecrobot.a(byte_fifo.oram)
                              ../../ecrobot/../ecrobot/libecrobot.a(uart.oram) (byte_fifo_init)
../../ecrobot/../ecrobot/libecrobot.a(aic.oram)
                              ../../ecrobot/../ecrobot/libecrobot.a(uart.oram) (aic_set_vector)
../../ecrobot/../ecrobot/libecrobot.a(udp.oram)
                              build/config/at91sam7s-gnu/irq.oram (udp_isr_C)
../../ecrobot/../ecrobot/libecrobot.a(twi.oram)
                              build/config/at91sam7s-gnu/irq.oram (twi_isr_C)
../../ecrobot/../ecrobot/libecrobot.a(nxt_spi.oram)
                              build/config/at91sam7s-gnu/irq.oram (spi_isr_C)
../../ecrobot/../ecrobot/libecrobot.a(nxt_motors.oram)
                              ../../ecrobot/../ecrobot/libecrobot.a(ecrobot_interface.o) (nxt_motor_get_count)
../../ecrobot/../ecrobot/libecrobot.a(data_abort.oram)
                              build/ecrobot_init.o (data_abort_C)
../../ecrobot/../ecrobot/libecrobot.a(display.oram)
                              build/ecrobot_base.o (display_update)
../../ecrobot/../ecrobot/libecrobot.a(i2c.oram)
                              build/config/at91sam7s-gnu/irq.oram (i2c_timer_isr_C)
../../ecrobot/../ecrobot/libecrobot.a(sound.oram)
                              ../../ecrobot/../ecrobot/libecrobot.a(ecrobot_interface.o) (sound_freq_vol)
../../ecrobot/../ecrobot/libecrobot.a(bt.oram)
                              build/ecrobot_bluetooth.o (bt_send)
../../ecrobot/../ecrobot/libecrobot.a(nxt_avr.oram)
                              build/ecrobot_base.o (nxt_avr_power_down)
../../ecrobot/../ecrobot/libecrobot.a(sensors.oram)
                              ../../ecrobot/../ecrobot/libecrobot.a(ecrobot_interface.o) (set_digi0)
../../ecrobot/../ecrobot/libecrobot.a(sensors1.oram)
                              ../../ecrobot/../ecrobot/libecrobot.a(colorsensor.o) (sp_read)
../../ecrobot/../ecrobot/libecrobot.a(nxt_lcd.oram)
                              ../../ecrobot/../ecrobot/libecrobot.a(display.oram) (nxt_lcd_force_update)
../../ecrobot/../ecrobot/libecrobot.a(flash_loader.oram)
                              build/ecrobot_base.o (set_flash_request)
../../ecrobot/../ecrobot/libecrobot.a(interrupts.oram)
                              ../../ecrobot/../ecrobot/libecrobot.a(uart.oram) (interrupts_get_and_disable)
../../ecrobot/../ecrobot/libecrobot.a(nxtosek_splash.obmp)
                              build/ecrobot_base.o (nxtosek_splash_bmp_start)
../../ecrobot/../ecrobot/libecrobot.a(ecrobot_usb.o)
                              ../../ecrobot/../ecrobot/libecrobot.a(flash_loader.oram) (ecrobot_init_usb)
../../ecrobot/../ecrobot/libecrobot.a(flashprog.oram)
                              ../../ecrobot/../ecrobot/libecrobot.a(flash_loader.oram) (flash_write_page)
/home/adrian/CodeSourcery/Sourcery_CodeBench_Lite_for_ARM_EABI/bin/../lib/gcc/arm-none-eabi/4.6.3/thumb/libgcc.a(_thumb1_case_uqi.o)
                              ../../ecrobot/../ecrobot/libecrobot.a(uart.oram) (__gnu_thumb1_case_uqi)
/home/adrian/CodeSourcery/Sourcery_CodeBench_Lite_for_ARM_EABI/bin/../lib/gcc/arm-none-eabi/4.6.3/thumb/libgcc.a(_thumb1_case_uhi.o)
                              ../../ecrobot/../ecrobot/libecrobot.a(i2c.oram) (__gnu_thumb1_case_uhi)
/home/adrian/CodeSourcery/Sourcery_CodeBench_Lite_for_ARM_EABI/bin/../lib/gcc/arm-none-eabi/4.6.3/thumb/libgcc.a(_udivsi3.o)
                              build/ecrobot_base.o (__aeabi_uidiv)
/home/adrian/CodeSourcery/Sourcery_CodeBench_Lite_for_ARM_EABI/bin/../lib/gcc/arm-none-eabi/4.6.3/thumb/libgcc.a(_divsi3.o)
                              ../../ecrobot/../ecrobot/libecrobot.a(uart.oram) (__aeabi_idiv)
/home/adrian/CodeSourcery/Sourcery_CodeBench_Lite_for_ARM_EABI/bin/../lib/gcc/arm-none-eabi/4.6.3/thumb/libgcc.a(_dvmd_tls.o)
                              /home/adrian/CodeSourcery/Sourcery_CodeBench_Lite_for_ARM_EABI/bin/../lib/gcc/arm-none-eabi/4.6.3/thumb/libgcc.a(_udivsi3.o) (__aeabi_idiv0)
/home/adrian/CodeSourcery/Sourcery_CodeBench_Lite_for_ARM_EABI/bin/../lib/gcc/arm-none-eabi/4.6.3/thumb/libgcc.a(_arm_addsubdf3.o)
                              ../../ecrobot/../ecrobot/libecrobot.a(colorsensor.o) (__aeabi_i2d)
/home/adrian/CodeSourcery/Sourcery_CodeBench_Lite_for_ARM_EABI/bin/../lib/gcc/arm-none-eabi/4.6.3/thumb/libgcc.a(_arm_muldivdf3.o)
                              ../../ecrobot/../ecrobot/libecrobot.a(colorsensor.o) (__aeabi_dmul)
/home/adrian/CodeSourcery/Sourcery_CodeBench_Lite_for_ARM_EABI/bin/../lib/gcc/arm-none-eabi/4.6.3/thumb/libgcc.a(_arm_cmpdf2.o)
                              ../../ecrobot/../ecrobot/libecrobot.a(colorsensor.o) (__aeabi_dcmpgt)
/home/adrian/CodeSourcery/Sourcery_CodeBench_Lite_for_ARM_EABI/bin/../lib/gcc/arm-none-eabi/4.6.3/thumb/libgcc.a(_aeabi_ldivmod.o)
                              ../../ecrobot/../ecrobot/libecrobot.a(sound.oram) (__aeabi_ldivmod)
/home/adrian/CodeSourcery/Sourcery_CodeBench_Lite_for_ARM_EABI/bin/../lib/gcc/arm-none-eabi/4.6.3/thumb/libgcc.a(_muldi3.o)
                              ../../ecrobot/../ecrobot/libecrobot.a(sound.oram) (__aeabi_lmul)
/home/adrian/CodeSourcery/Sourcery_CodeBench_Lite_for_ARM_EABI/bin/../lib/gcc/arm-none-eabi/4.6.3/thumb/libgcc.a(bpabi.o)
                              /home/adrian/CodeSourcery/Sourcery_CodeBench_Lite_for_ARM_EABI/bin/../lib/gcc/arm-none-eabi/4.6.3/thumb/libgcc.a(_aeabi_ldivmod.o) (__gnu_ldivmod_helper)
/home/adrian/CodeSourcery/Sourcery_CodeBench_Lite_for_ARM_EABI/bin/../lib/gcc/arm-none-eabi/4.6.3/thumb/libgcc.a(_divdi3.o)
                              /home/adrian/CodeSourcery/Sourcery_CodeBench_Lite_for_ARM_EABI/bin/../lib/gcc/arm-none-eabi/4.6.3/thumb/libgcc.a(bpabi.o) (__divdi3)
/home/adrian/CodeSourcery/Sourcery_CodeBench_Lite_for_ARM_EABI/bin/../lib/gcc/arm-none-eabi/4.6.3/thumb/libgcc.a(_udivdi3.o)
                              /home/adrian/CodeSourcery/Sourcery_CodeBench_Lite_for_ARM_EABI/bin/../lib/gcc/arm-none-eabi/4.6.3/thumb/libgcc.a(bpabi.o) (__udivdi3)
/home/adrian/CodeSourcery/Sourcery_CodeBench_Lite_for_ARM_EABI/bin/../lib/gcc/arm-none-eabi/4.6.3/thumb/libgcc.a(_clzsi2.o)
                              /home/adrian/CodeSourcery/Sourcery_CodeBench_Lite_for_ARM_EABI/bin/../lib/gcc/arm-none-eabi/4.6.3/thumb/libgcc.a(_divdi3.o) (__clzsi2)
/home/adrian/CodeSourcery/Sourcery_CodeBench_Lite_for_ARM_EABI/bin/../lib/gcc/arm-none-eabi/4.6.3/../../../../arm-none-eabi/lib/thumb/libc.a(lib_a-cxa_finalize.o)
                              build/ecrobot_base.o (__cxa_finalize)
/home/adrian/CodeSourcery/Sourcery_CodeBench_Lite_for_ARM_EABI/bin/../lib/gcc/arm-none-eabi/4.6.3/../../../../arm-none-eabi/lib/thumb/libc.a(lib_a-memcpy.o)
                              ../../ecrobot/../ecrobot/libecrobot.a(udp.oram) (memcpy)
/home/adrian/CodeSourcery/Sourcery_CodeBench_Lite_for_ARM_EABI/bin/../lib/gcc/arm-none-eabi/4.6.3/../../../../arm-none-eabi/lib/thumb/libc.a(lib_a-memset.o)
                              build/ecrobot_bluetooth.o (memset)
/home/adrian/CodeSourcery/Sourcery_CodeBench_Lite_for_ARM_EABI/bin/../lib/gcc/arm-none-eabi/4.6.3/../../../../arm-none-eabi/lib/thumb/libc.a(lib_a-rand.o)
                              build/tetrix.o (rand)
/home/adrian/CodeSourcery/Sourcery_CodeBench_Lite_for_ARM_EABI/bin/../lib/gcc/arm-none-eabi/4.6.3/../../../../arm-none-eabi/lib/thumb/libc.a(lib_a-strcmp.o)
                              ../../ecrobot/../ecrobot/libecrobot.a(flash_loader.oram) (strcmp)
/home/adrian/CodeSourcery/Sourcery_CodeBench_Lite_for_ARM_EABI/bin/../lib/gcc/arm-none-eabi/4.6.3/../../../../arm-none-eabi/lib/thumb/libc.a(lib_a-strcpy.o)
                              build/ecrobot_base.o (strcpy)
/home/adrian/CodeSourcery/Sourcery_CodeBench_Lite_for_ARM_EABI/bin/../lib/gcc/arm-none-eabi/4.6.3/../../../../arm-none-eabi/lib/thumb/libc.a(lib_a-strlen.o)
                              build/ecrobot_base.o (strlen)
/home/adrian/CodeSourcery/Sourcery_CodeBench_Lite_for_ARM_EABI/bin/../lib/gcc/arm-none-eabi/4.6.3/../../../../arm-none-eabi/lib/thumb/libc.a(lib_a-strncpy.o)
                              build/ecrobot_bluetooth.o (strncpy)
/home/adrian/CodeSourcery/Sourcery_CodeBench_Lite_for_ARM_EABI/bin/../lib/gcc/arm-none-eabi/4.6.3/../../../../arm-none-eabi/lib/thumb/libc.a(lib_a-__call_atexit.o)
                              /home/adrian/CodeSourcery/Sourcery_CodeBench_Lite_for_ARM_EABI/bin/../lib/gcc/arm-none-eabi/4.6.3/../../../../arm-none-eabi/lib/thumb/libc.a(lib_a-cxa_finalize.o) (__call_exitprocs)
/home/adrian/CodeSourcery/Sourcery_CodeBench_Lite_for_ARM_EABI/bin/../lib/gcc/arm-none-eabi/4.6.3/../../../../arm-none-eabi/lib/thumb/libc.a(lib_a-atexit.o)
                              /home/adrian/CodeSourcery/Sourcery_CodeBench_Lite_for_ARM_EABI/bin/../lib/gcc/arm-none-eabi/4.6.3/../../../../arm-none-eabi/lib/thumb/libc.a(lib_a-__call_atexit.o) (atexit)
/home/adrian/CodeSourcery/Sourcery_CodeBench_Lite_for_ARM_EABI/bin/../lib/gcc/arm-none-eabi/4.6.3/../../../../arm-none-eabi/lib/thumb/libc.a(lib_a-fini.o)
                              /home/adrian/CodeSourcery/Sourcery_CodeBench_Lite_for_ARM_EABI/bin/../lib/gcc/arm-none-eabi/4.6.3/../../../../arm-none-eabi/lib/thumb/libc.a(lib_a-__call_atexit.o) (__libc_fini_array)
/home/adrian/CodeSourcery/Sourcery_CodeBench_Lite_for_ARM_EABI/bin/../lib/gcc/arm-none-eabi/4.6.3/../../../../arm-none-eabi/lib/thumb/libc.a(lib_a-impure.o)
                              /home/adrian/CodeSourcery/Sourcery_CodeBench_Lite_for_ARM_EABI/bin/../lib/gcc/arm-none-eabi/4.6.3/../../../../arm-none-eabi/lib/thumb/libc.a(lib_a-__call_atexit.o) (_global_impure_ptr)
/home/adrian/CodeSourcery/Sourcery_CodeBench_Lite_for_ARM_EABI/bin/../lib/gcc/arm-none-eabi/4.6.3/../../../../arm-none-eabi/lib/thumb/libc.a(lib_a-__atexit.o)
                              /home/adrian/CodeSourcery/Sourcery_CodeBench_Lite_for_ARM_EABI/bin/../lib/gcc/arm-none-eabi/4.6.3/../../../../arm-none-eabi/lib/thumb/libc.a(lib_a-atexit.o) (__register_exitproc)

Allocating common symbols
Common symbol       size              file

tcb_waievt          0x4               build/./kernel_cfg.o
rescb_prevpri       0x1               build/./kernel_cfg.o
almcb_prev          0x1               build/./kernel_cfg.o
callevel            0x1               build/kernel/osctl.o
runtsk              0x1               build/kernel/task.o
tcb_lastres         0x1               build/./kernel_cfg.o
runisr              0x1               build/kernel/interrupt.o
almcb_almval        0x4               build/./kernel_cfg.o
display_x           0x4               ../../ecrobot/../ecrobot/libecrobot.a(display.oram)
_errorhook_svcid    0x1               build/kernel/osctl.o
tcxb_pc             0x4               build/./kernel_cfg.o
appmode             0x1               build/kernel/osctl.o
_errorhook_par1     0x4               build/kernel/osctl.o
schedtsk            0x1               build/kernel/task.o
tcb_next            0x1               build/./kernel_cfg.o
tcb_curpri          0x1               build/./kernel_cfg.o
tcb_tstat           0x1               build/./kernel_cfg.o
data_abort_pc       0x4               ../../ecrobot/../ecrobot/libecrobot.a(data_abort.oram)
nextpri             0x1               build/kernel/task.o
isrcb_lastres       0x1               build/./kernel_cfg.o
cntcb_almque        0x1               build/./kernel_cfg.o
rescb_prevres       0x1               build/./kernel_cfg.o
tcb_actcnt          0x1               build/./kernel_cfg.o
_errorhook_par3     0x4               build/kernel/osctl.o
tcb_curevt          0x4               build/./kernel_cfg.o
display_y           0x4               ../../ecrobot/../ecrobot/libecrobot.a(display.oram)
sus_all_cnt         0x1               build/kernel/interrupt.o
almcb_cycle         0x4               build/./kernel_cfg.o
tcxb_sp             0x4               build/./kernel_cfg.o
uart                0x44              ../../ecrobot/../ecrobot/libecrobot.a(uart.oram)
sample              0x31c             ../../ecrobot/../ecrobot/libecrobot.a(sound.oram)
almcb_next          0x1               build/./kernel_cfg.o
_errorhook_par2     0x4               build/kernel/osctl.o
cntcb_curval        0x4               build/./kernel_cfg.o

Discarded input sections

 .text          0x00000000        0x0 build/kernel/alarm.o
 .data          0x00000000        0x0 build/kernel/alarm.o
 .bss           0x00000000        0x0 build/kernel/alarm.o
 .text.GetAlarmBase
                0x00000000       0x78 build/kernel/alarm.o
 .text.GetAlarm
                0x00000000       0x94 build/kernel/alarm.o
 .text.SetRelAlarm
                0x00000000       0xd8 build/kernel/alarm.o
 .text.SetAbsAlarm
                0x00000000       0xe4 build/kernel/alarm.o
 .text.CancelAlarm
                0x00000000       0x8c build/kernel/alarm.o
 .text          0x00000000        0x0 build/kernel/event.o
 .data          0x00000000        0x0 build/kernel/event.o
 .bss           0x00000000        0x0 build/kernel/event.o
 .text.SetEvent
                0x00000000       0xa4 build/kernel/event.o
 .text.ClearEvent
                0x00000000       0x60 build/kernel/event.o
 .text.GetEvent
                0x00000000       0x7c build/kernel/event.o
 .text.WaitEvent
                0x00000000       0xa4 build/kernel/event.o
 .comment       0x00000000       0x31 build/kernel/event.o
 .ARM.attributes
                0x00000000       0x32 build/kernel/event.o
 .text          0x00000000        0x0 build/kernel/interrupt.o
 .data          0x00000000        0x0 build/kernel/interrupt.o
 .bss           0x00000000        0x0 build/kernel/interrupt.o
 .text.interrupt_initialize
                0x00000000       0x38 build/kernel/interrupt.o
 .text.DisableAllInterrupts
                0x00000000        0xc build/kernel/interrupt.o
 .text.EnableAllInterrupts
                0x00000000        0xc build/kernel/interrupt.o
 .text.SuspendAllInterrupts
                0x00000000       0x48 build/kernel/interrupt.o
 .text.ResumeAllInterrupts
                0x00000000       0x44 build/kernel/interrupt.o
 .text.SuspendOSInterrupts
                0x00000000       0x48 build/kernel/interrupt.o
 .text.ResumeOSInterrupts
                0x00000000       0x40 build/kernel/interrupt.o
 .bss.saved_callevel
                0x00000000        0x1 build/kernel/interrupt.o
 .bss.sus_os_cnt
                0x00000000        0x1 build/kernel/interrupt.o
 .bss.saved_ipl
                0x00000000        0x1 build/kernel/interrupt.o
 .text          0x00000000        0x0 build/kernel/osctl.o
 .data          0x00000000        0x0 build/kernel/osctl.o
 .bss           0x00000000        0x0 build/kernel/osctl.o
 .text.GetActiveApplicationMode
                0x00000000        0xc build/kernel/osctl.o
 .text          0x00000000        0x0 build/kernel/resource.o
 .data          0x00000000        0x0 build/kernel/resource.o
 .bss           0x00000000        0x0 build/kernel/resource.o
 .text.resource_initialize
                0x00000000       0x28 build/kernel/resource.o
 .text.GetResource
                0x00000000       0xd4 build/kernel/resource.o
 .text.ReleaseResource
                0x00000000       0xf0 build/kernel/resource.o
 .comment       0x00000000       0x31 build/kernel/resource.o
 .ARM.attributes
                0x00000000       0x32 build/kernel/resource.o
 .text          0x00000000        0x0 build/kernel/task.o
 .data          0x00000000        0x0 build/kernel/task.o
 .bss           0x00000000        0x0 build/kernel/task.o
 .text.preempt  0x00000000       0x4c build/kernel/task.o
 .text          0x00000000        0x0 build/kernel/task_manage.o
 .data          0x00000000        0x0 build/kernel/task_manage.o
 .bss           0x00000000        0x0 build/kernel/task_manage.o
 .text.ChainTask
                0x00000000       0xc4 build/kernel/task_manage.o
 .text.Schedule
                0x00000000       0x78 build/kernel/task_manage.o
 .text.GetTaskID
                0x00000000       0x3c build/kernel/task_manage.o
 .text.GetTaskState
                0x00000000       0x6c build/kernel/task_manage.o
 .text          0x00000000        0x0 build/config/at91sam7s-gnu/cpu_config.o
 .data          0x00000000        0x0 build/config/at91sam7s-gnu/cpu_config.o
 .bss           0x00000000        0x0 build/config/at91sam7s-gnu/cpu_config.o
 .text          0x00000000        0x0 build/config/at91sam7s-gnu/lego_nxt/sys_config.o
 .data          0x00000000        0x0 build/config/at91sam7s-gnu/lego_nxt/sys_config.o
 .bss           0x00000000        0x0 build/config/at91sam7s-gnu/lego_nxt/sys_config.o
 .text          0x00000000        0x0 build/./kernel_cfg.o
 .data          0x00000000        0x0 build/./kernel_cfg.o
 .bss           0x00000000        0x0 build/./kernel_cfg.o
 .rodata.tnum_resource
                0x00000000        0x1 build/./kernel_cfg.o
 .rodata.cyclic_alarm
                0x00000000        0x1 build/./kernel_cfg.o
 .rodata.isrinib_intpri
                0x00000000        0x1 build/./kernel_cfg.o
 .rodata.Task1  0x00000000        0x1 build/./kernel_cfg.o
 .rodata.tnum_isr2
                0x00000000        0x1 build/./kernel_cfg.o
 .rodata.ipl_maxisr2
                0x00000000        0x1 build/./kernel_cfg.o
 .rodata.cntinib_mincyc
                0x00000000        0x4 build/./kernel_cfg.o
 .rodata.resinib_ceilpri
                0x00000000        0x1 build/./kernel_cfg.o
 .text          0x00000000        0x0 build/syscalls.o
 .data          0x00000000        0x0 build/syscalls.o
 .bss           0x00000000        0x0 build/syscalls.o
 .text._sbrk_r  0x00000000       0x20 build/syscalls.o
 .bss.heap_ptr  0x00000000        0x4 build/syscalls.o
 .comment       0x00000000       0x31 build/syscalls.o
 .ARM.attributes
                0x00000000       0x32 build/syscalls.o
 .text          0x00000000        0x0 build/ecrobot_bluetooth.o
 .data          0x00000000        0x0 build/ecrobot_bluetooth.o
 .bss           0x00000000        0x0 build/ecrobot_bluetooth.o
 .text.close_bt_stream
                0x00000000       0x28 build/ecrobot_bluetooth.o
 .text.send_bt_command
                0x00000000       0x40 build/ecrobot_bluetooth.o
 .text.open_bt_stream
                0x00000000       0x44 build/ecrobot_bluetooth.o
 .text.read_bt_command.constprop.0
                0x00000000       0x5c build/ecrobot_bluetooth.o
 .text.ecrobot_get_bt_device_address
                0x00000000       0x64 build/ecrobot_bluetooth.o
 .text.ecrobot_get_bt_device_name
                0x00000000       0x70 build/ecrobot_bluetooth.o
 .text.ecrobot_get_bt_signal_strength
                0x00000000       0x78 build/ecrobot_bluetooth.o
 .text.ecrobot_set_bt_device_name
                0x00000000       0x44 build/ecrobot_bluetooth.o
 .text.ecrobot_set_bt_factory_settings
                0x00000000       0x30 build/ecrobot_bluetooth.o
 .text.ecrobot_get_bt_status
                0x00000000        0xc build/ecrobot_bluetooth.o
 .text.ecrobot_init_bt_master
                0x00000000       0xe4 build/ecrobot_bluetooth.o
 .text.ecrobot_init_bt_slave
                0x00000000      0x104 build/ecrobot_bluetooth.o
 .text.ecrobot_init_bt_connection
                0x00000000       0x14 build/ecrobot_bluetooth.o
 .text.ecrobot_term_bt_connection
                0x00000000       0x40 build/ecrobot_bluetooth.o
 .text.ecrobot_send_bt_packet
                0x00000000       0x54 build/ecrobot_bluetooth.o
 .text.ecrobot_read_bt_packet
                0x00000000       0x48 build/ecrobot_bluetooth.o
 .text.ecrobot_send_bt
                0x00000000       0x3c build/ecrobot_bluetooth.o
 .text.ecrobot_read_bt
                0x00000000       0x24 build/ecrobot_bluetooth.o
 .data.bt_status
                0x00000000        0x1 build/ecrobot_bluetooth.o
 .rodata.str1.1
                0x00000000        0x7 build/ecrobot_bluetooth.o
 .bss.receiveBuf
                0x00000000       0x80 build/ecrobot_bluetooth.o
 .bss.sendBuf   0x00000000      0x100 build/ecrobot_bluetooth.o
 .bss.handle    0x00000000        0x1 build/ecrobot_bluetooth.o
 .comment       0x00000000       0x31 build/ecrobot_bluetooth.o
 .ARM.attributes
                0x00000000       0x32 build/ecrobot_bluetooth.o
 .text          0x00000000        0x0 build/ecrobot_base.o
 .data          0x00000000        0x0 build/ecrobot_base.o
 .bss           0x00000000        0x0 build/ecrobot_base.o
 .text.show_bd_addr
                0x00000000       0x40 build/ecrobot_base.o
 .text.show_bd_addr_err
                0x00000000       0x38 build/ecrobot_base.o
 .text.exec_NXT_BIOS
                0x00000000       0x40 build/ecrobot_base.o
 .text          0x00000000        0x0 build/ecrobot.o
 .data          0x00000000        0x0 build/ecrobot.o
 .bss           0x00000000        0x0 build/ecrobot.o
 .text          0x00000000        0x0 build/tetrix.o
 .data          0x00000000        0x0 build/tetrix.o
 .bss           0x00000000        0x0 build/tetrix.o
 .text          0x00000000        0x0 build/syslib/at91sam7s-gnu/lego_nxt/hw_sys_timer.oram
 .data          0x00000000        0x0 build/syslib/at91sam7s-gnu/lego_nxt/hw_sys_timer.oram
 .bss           0x00000000        0x0 build/syslib/at91sam7s-gnu/lego_nxt/hw_sys_timer.oram
 .text          0x00000000       0x38 build/nxtvm/platform/nxt/vectors.o
 .data          0x00000000        0x0 build/nxtvm/platform/nxt/vectors.o
 .bss           0x00000000        0x0 build/nxtvm/platform/nxt/vectors.o
 .ARM.attributes
                0x00000000       0x22 build/nxtvm/platform/nxt/vectors.o
 .text          0x00000000       0x20 build/config/at91sam7s-gnu/debug.o
 .data          0x00000000        0x0 build/config/at91sam7s-gnu/debug.o
 .bss           0x00000000        0x0 build/config/at91sam7s-gnu/debug.o
 .ARM.attributes
                0x00000000       0x22 build/config/at91sam7s-gnu/debug.o
 .text          0x00000000        0x0 build/config/at91sam7s-gnu/lego_nxt/sys_support.o
 .data          0x00000000        0x0 build/config/at91sam7s-gnu/lego_nxt/sys_support.o
 .bss           0x00000000        0x0 build/config/at91sam7s-gnu/lego_nxt/sys_support.o
 .ARM.attributes
                0x00000000       0x22 build/config/at91sam7s-gnu/lego_nxt/sys_support.o
 .text          0x00000000       0x10 build/nxt_binary_header.o
 .data          0x00000000        0x0 build/nxt_binary_header.o
 .bss           0x00000000        0x0 build/nxt_binary_header.o
 .ARM.attributes
                0x00000000       0x22 build/nxt_binary_header.o
 .text          0x00000000       0x38 build/nxt_entry_point.o
 .data          0x00000000        0x0 build/nxt_entry_point.o
 .bss           0x00000000        0x0 build/nxt_entry_point.o
 .ARM.attributes
                0x00000000       0x22 build/nxt_entry_point.o
 .data          0x00000000        0x0 build/ecrobot_init.o
 .bss           0x00000000        0x0 build/ecrobot_init.o
 .data          0x00000000        0x0 build/config/at91sam7s-gnu/cpu_support.oram
 .bss           0x00000000        0x0 build/config/at91sam7s-gnu/cpu_support.oram
 .data          0x00000000        0x0 build/config/at91sam7s-gnu/irq.oram
 .bss           0x00000000        0x0 build/config/at91sam7s-gnu/irq.oram
 .text          0x00000000        0x0 ../../ecrobot/../ecrobot/libecrobot.a(ecrobot_HiTechnic.o)
 .data          0x00000000        0x0 ../../ecrobot/../ecrobot/libecrobot.a(ecrobot_HiTechnic.o)
 .bss           0x00000000        0x0 ../../ecrobot/../ecrobot/libecrobot.a(ecrobot_HiTechnic.o)
 .text.ecrobot_get_gyro_sensor
                0x00000000       0x10 ../../ecrobot/../ecrobot/libecrobot.a(ecrobot_HiTechnic.o)
 .text.ecrobot_init_accel_sensor
                0x00000000        0xe ../../ecrobot/../ecrobot/libecrobot.a(ecrobot_HiTechnic.o)
 .text.ecrobot_get_accel_sensor
                0x00000000       0x6c ../../ecrobot/../ecrobot/libecrobot.a(ecrobot_HiTechnic.o)
 .text.ecrobot_term_accel_sensor
                0x00000000        0xc ../../ecrobot/../ecrobot/libecrobot.a(ecrobot_HiTechnic.o)
 .text.ecrobot_init_ir_seeker
                0x00000000        0xe ../../ecrobot/../ecrobot/libecrobot.a(ecrobot_HiTechnic.o)
 .text.ecrobot_get_ir_seeker
                0x00000000       0x40 ../../ecrobot/../ecrobot/libecrobot.a(ecrobot_HiTechnic.o)
 .text.ecrobot_term_ir_seeker
                0x00000000        0xc ../../ecrobot/../ecrobot/libecrobot.a(ecrobot_HiTechnic.o)
 .text.ecrobot_init_color_sensor
                0x00000000        0xe ../../ecrobot/../ecrobot/libecrobot.a(ecrobot_HiTechnic.o)
 .text.ecrobot_cal_color_sensor
                0x00000000       0x3c ../../ecrobot/../ecrobot/libecrobot.a(ecrobot_HiTechnic.o)
 .text.ecrobot_get_color_sensor
                0x00000000       0x5c ../../ecrobot/../ecrobot/libecrobot.a(ecrobot_HiTechnic.o)
 .text.ecrobot_term_color_sensor
                0x00000000        0xc ../../ecrobot/../ecrobot/libecrobot.a(ecrobot_HiTechnic.o)
 .text.ecrobot_init_compass_sensor
                0x00000000        0xe ../../ecrobot/../ecrobot/libecrobot.a(ecrobot_HiTechnic.o)
 .text.ecrobot_cal_compass_sensor
                0x00000000       0x86 ../../ecrobot/../ecrobot/libecrobot.a(ecrobot_HiTechnic.o)
 .text.ecrobot_get_compass_sensor
                0x00000000       0x44 ../../ecrobot/../ecrobot/libecrobot.a(ecrobot_HiTechnic.o)
 .text.ecrobot_term_compass_sensor
                0x00000000        0xc ../../ecrobot/../ecrobot/libecrobot.a(ecrobot_HiTechnic.o)
 .text.ecrobot_init_prototype_sensor
                0x00000000       0x78 ../../ecrobot/../ecrobot/libecrobot.a(ecrobot_HiTechnic.o)
 .text.ecrobot_get_prototype_analog_sensor
                0x00000000       0x4c ../../ecrobot/../ecrobot/libecrobot.a(ecrobot_HiTechnic.o)
 .text.ecrobot_get_prototype_digital_sensor
                0x00000000       0x44 ../../ecrobot/../ecrobot/libecrobot.a(ecrobot_HiTechnic.o)
 .text.ecrobot_get_prototype_sensor
                0x00000000       0x7c ../../ecrobot/../ecrobot/libecrobot.a(ecrobot_HiTechnic.o)
 .text.ecrobot_send_prototype_digital_sensor
                0x00000000       0x3c ../../ecrobot/../ecrobot/libecrobot.a(ecrobot_HiTechnic.o)
 .text.ecrobot_term_prototype_sensor
                0x00000000        0xc ../../ecrobot/../ecrobot/libecrobot.a(ecrobot_HiTechnic.o)
 .bss.data.4973
                0x00000000       0x28 ../../ecrobot/../ecrobot/libecrobot.a(ecrobot_HiTechnic.o)
 .bss.data.4980
                0x00000000        0x4 ../../ecrobot/../ecrobot/libecrobot.a(ecrobot_HiTechnic.o)
 .bss.data.4916
                0x00000000       0x18 ../../ecrobot/../ecrobot/libecrobot.a(ecrobot_HiTechnic.o)
 .bss.data.4988
                0x00000000       0x2c ../../ecrobot/../ecrobot/libecrobot.a(ecrobot_HiTechnic.o)
 .bss.data.4935
                0x00000000       0x38 ../../ecrobot/../ecrobot/libecrobot.a(ecrobot_HiTechnic.o)
 .bss.digitalDir
                0x00000000        0x1 ../../ecrobot/../ecrobot/libecrobot.a(ecrobot_HiTechnic.o)
 .bss.data.4949
                0x00000000       0x14 ../../ecrobot/../ecrobot/libecrobot.a(ecrobot_HiTechnic.o)
 .bss.data.4901
                0x00000000       0x18 ../../ecrobot/../ecrobot/libecrobot.a(ecrobot_HiTechnic.o)
 .text          0x00000000        0x0 ../../ecrobot/../ecrobot/libecrobot.a(ecrobot_interface.o)
 .data          0x00000000        0x0 ../../ecrobot/../ecrobot/libecrobot.a(ecrobot_interface.o)
 .bss           0x00000000        0x0 ../../ecrobot/../ecrobot/libecrobot.a(ecrobot_interface.o)
 .text.getDistance
                0x00000000       0x1c ../../ecrobot/../ecrobot/libecrobot.a(ecrobot_interface.o)
 .text.ecrobot_set_motor_speed
                0x00000000        0xe ../../ecrobot/../ecrobot/libecrobot.a(ecrobot_interface.o)
 .text.ecrobot_set_motor_mode_speed
                0x00000000       0x12 ../../ecrobot/../ecrobot/libecrobot.a(ecrobot_interface.o)
 .text.ecrobot_get_motor_rev
                0x00000000        0xc ../../ecrobot/../ecrobot/libecrobot.a(ecrobot_interface.o)
 .text.ecrobot_set_motor_rev
                0x00000000        0xc ../../ecrobot/../ecrobot/libecrobot.a(ecrobot_interface.o)
 .text.ecrobot_set_light_sensor_active
                0x00000000        0xc ../../ecrobot/../ecrobot/libecrobot.a(ecrobot_interface.o)
 .text.ecrobot_set_light_sensor_inactive
                0x00000000        0xc ../../ecrobot/../ecrobot/libecrobot.a(ecrobot_interface.o)
 .text.ecrobot_get_light_sensor
                0x00000000       0x10 ../../ecrobot/../ecrobot/libecrobot.a(ecrobot_interface.o)
 .text.ecrobot_get_touch_sensor
                0x00000000       0x1c ../../ecrobot/../ecrobot/libecrobot.a(ecrobot_interface.o)
 .text.ecrobot_get_sound_sensor
                0x00000000       0x10 ../../ecrobot/../ecrobot/libecrobot.a(ecrobot_interface.o)
 .text.ecrobot_init_sonar_sensor
                0x00000000        0xe ../../ecrobot/../ecrobot/libecrobot.a(ecrobot_interface.o)
 .text.ecrobot_get_sonar_sensor
                0x00000000       0x44 ../../ecrobot/../ecrobot/libecrobot.a(ecrobot_interface.o)
 .text.ecrobot_term_sonar_sensor
                0x00000000       0x20 ../../ecrobot/../ecrobot/libecrobot.a(ecrobot_interface.o)
 .text.ecrobot_process_bg_nxtcolorsensor
                0x00000000       0x8c ../../ecrobot/../ecrobot/libecrobot.a(ecrobot_interface.o)
 .text.ecrobot_set_nxtcolorsensor
                0x00000000       0x38 ../../ecrobot/../ecrobot/libecrobot.a(ecrobot_interface.o)
 .text.ecrobot_init_nxtcolorsensor
                0x00000000       0x28 ../../ecrobot/../ecrobot/libecrobot.a(ecrobot_interface.o)
 .text.ecrobot_get_nxtcolorsensor_mode
                0x00000000       0x14 ../../ecrobot/../ecrobot/libecrobot.a(ecrobot_interface.o)
 .text.ecrobot_get_nxtcolorsensor_light
                0x00000000       0x10 ../../ecrobot/../ecrobot/libecrobot.a(ecrobot_interface.o)
 .text.ecrobot_get_nxtcolorsensor_id
                0x00000000       0x20 ../../ecrobot/../ecrobot/libecrobot.a(ecrobot_interface.o)
 .text.ecrobot_get_nxtcolorsensor_rgb
                0x00000000       0x1c ../../ecrobot/../ecrobot/libecrobot.a(ecrobot_interface.o)
 .text.ecrobot_term_nxtcolorsensor
                0x00000000        0xc ../../ecrobot/../ecrobot/libecrobot.a(ecrobot_interface.o)
 .text.ecrobot_set_RCX_power_source
                0x00000000       0x1c ../../ecrobot/../ecrobot/libecrobot.a(ecrobot_interface.o)
 .text.ecrobot_term_RCX_power_source
                0x00000000        0xe ../../ecrobot/../ecrobot/libecrobot.a(ecrobot_interface.o)
 .text.ecrobot_get_RCX_sensor
                0x00000000       0x10 ../../ecrobot/../ecrobot/libecrobot.a(ecrobot_interface.o)
 .text.ecrobot_get_RCX_touch_sensor
                0x00000000       0x1c ../../ecrobot/../ecrobot/libecrobot.a(ecrobot_interface.o)
 .text.ecrobot_get_systick_ms
                0x00000000        0xc ../../ecrobot/../ecrobot/libecrobot.a(ecrobot_interface.o)
 .text.ecrobot_is_RUN_button_pressed
                0x00000000       0x10 ../../ecrobot/../ecrobot/libecrobot.a(ecrobot_interface.o)
 .text.ecrobot_is_ENTER_button_pressed
                0x00000000       0x10 ../../ecrobot/../ecrobot/libecrobot.a(ecrobot_interface.o)
 .text.get_device_status
                0x00000000        0xc ../../ecrobot/../ecrobot/libecrobot.a(ecrobot_interface.o)
 .text.ecrobot_restart_NXT
                0x00000000        0xc ../../ecrobot/../ecrobot/libecrobot.a(ecrobot_interface.o)
 .text.ecrobot_shutdown_NXT
                0x00000000        0xc ../../ecrobot/../ecrobot/libecrobot.a(ecrobot_interface.o)
 .text.ecrobot_exec_NXT_BIOS
                0x00000000        0xc ../../ecrobot/../ecrobot/libecrobot.a(ecrobot_interface.o)
 .text.ecrobot_bt_data_logger
                0x00000000       0x70 ../../ecrobot/../ecrobot/libecrobot.a(ecrobot_interface.o)
 .text.ecrobot_bt_adc_data_logger
                0x00000000       0x7c ../../ecrobot/../ecrobot/libecrobot.a(ecrobot_interface.o)
 .text.ecrobot_show_int
                0x00000000       0x30 ../../ecrobot/../ecrobot/libecrobot.a(ecrobot_interface.o)
 .text.ecrobot_debug
                0x00000000       0x30 ../../ecrobot/../ecrobot/libecrobot.a(ecrobot_interface.o)
 .text.ecrobot_debug1
                0x00000000       0x68 ../../ecrobot/../ecrobot/libecrobot.a(ecrobot_interface.o)
 .text.ecrobot_debug2
                0x00000000       0x68 ../../ecrobot/../ecrobot/libecrobot.a(ecrobot_interface.o)
 .text.ecrobot_status_monitor
                0x00000000      0x138 ../../ecrobot/../ecrobot/libecrobot.a(ecrobot_interface.o)
 .text.ecrobot_adc_data_monitor
                0x00000000      0x138 ../../ecrobot/../ecrobot/libecrobot.a(ecrobot_interface.o)
 .text.ecrobot_sint_var_monitor
                0x00000000       0x36 ../../ecrobot/../ecrobot/libecrobot.a(ecrobot_interface.o)
 .text.ecrobot_sound_tone
                0x00000000        0xe ../../ecrobot/../ecrobot/libecrobot.a(ecrobot_interface.o)
 .text.ecrobot_sound_wav
                0x00000000      0x1d4 ../../ecrobot/../ecrobot/libecrobot.a(ecrobot_interface.o)
 .bss.data.5514
                0x00000000        0x4 ../../ecrobot/../ecrobot/libecrobot.a(ecrobot_interface.o)
 .data.distance_state
                0x00000000       0x10 ../../ecrobot/../ecrobot/libecrobot.a(ecrobot_interface.o)
 .bss.adc       0x00000000        0x8 ../../ecrobot/../ecrobot/libecrobot.a(ecrobot_interface.o)
 .bss.sensor_data
                0x00000000       0x38 ../../ecrobot/../ecrobot/libecrobot.a(ecrobot_interface.o)
 .rodata.NXT_COLORSENSOR_PROTOCOLS
                0x00000000        0x7 ../../ecrobot/../ecrobot/libecrobot.a(ecrobot_interface.o)
 .rodata.str1.1
                0x00000000       0x6d ../../ecrobot/../ecrobot/libecrobot.a(ecrobot_interface.o)
 .rodata.CSWTCH.26
                0x00000000        0x8 ../../ecrobot/../ecrobot/libecrobot.a(ecrobot_interface.o)
 .text          0x00000000        0x0 ../../ecrobot/../ecrobot/libecrobot.a(colorsensor.o)
 .data          0x00000000        0x0 ../../ecrobot/../ecrobot/libecrobot.a(colorsensor.o)
 .bss           0x00000000        0x0 ../../ecrobot/../ecrobot/libecrobot.a(colorsensor.o)
 .text.colorsensor_recv
                0x00000000       0x60 ../../ecrobot/../ecrobot/libecrobot.a(colorsensor.o)
 .text.colorsensor_init
                0x00000000      0x100 ../../ecrobot/../ecrobot/libecrobot.a(colorsensor.o)
 .text.colorsensor_term
                0x00000000       0x68 ../../ecrobot/../ecrobot/libecrobot.a(colorsensor.o)
 .text.colorsensor_light_get
                0x00000000       0x40 ../../ecrobot/../ecrobot/libecrobot.a(colorsensor.o)
 .text.colorsensor_light_full
                0x00000000       0xa0 ../../ecrobot/../ecrobot/libecrobot.a(colorsensor.o)
 .text.colorsensor_rgb_get
                0x00000000       0x14 ../../ecrobot/../ecrobot/libecrobot.a(colorsensor.o)
 .text.colorsensor_color_get
                0x00000000      0x120 ../../ecrobot/../ecrobot/libecrobot.a(colorsensor.o)
 .bss.rgb_buf   0x00000000        0xc ../../ecrobot/../ecrobot/libecrobot.a(colorsensor.o)
 .comment       0x00000000       0x31 ../../ecrobot/../ecrobot/libecrobot.a(colorsensor.o)
 .ARM.attributes
                0x00000000       0x32 ../../ecrobot/../ecrobot/libecrobot.a(colorsensor.o)
 .text          0x00000000        0x0 ../../ecrobot/../ecrobot/libecrobot.a(osek_hook.o)
 .data          0x00000000        0x0 ../../ecrobot/../ecrobot/libecrobot.a(osek_hook.o)
 .bss           0x00000000        0x0 ../../ecrobot/../ecrobot/libecrobot.a(osek_hook.o)
 .text          0x00000000        0x0 ../../ecrobot/../ecrobot/libecrobot.a(uart.oram)
 .data          0x00000000        0x0 ../../ecrobot/../ecrobot/libecrobot.a(uart.oram)
 .bss           0x00000000        0x0 ../../ecrobot/../ecrobot/libecrobot.a(uart.oram)
 .text.uart_get_byte
                0x00000000       0x34 ../../ecrobot/../ecrobot/libecrobot.a(uart.oram)
 .text.uart_put_byte
                0x00000000       0x44 ../../ecrobot/../ecrobot/libecrobot.a(uart.oram)
 .text.uart_put_str
                0x00000000       0x22 ../../ecrobot/../ecrobot/libecrobot.a(uart.oram)
 .text.uart_set_break
                0x00000000       0x20 ../../ecrobot/../ecrobot/libecrobot.a(uart.oram)
 .text.uart_clear_break
                0x00000000       0x20 ../../ecrobot/../ecrobot/libecrobot.a(uart.oram)
 .text.uart_CheckBreak
                0x00000000        0x4 ../../ecrobot/../ecrobot/libecrobot.a(uart.oram)
 .text.uart_init
                0x00000000      0x154 ../../ecrobot/../ecrobot/libecrobot.a(uart.oram)
 .text.uart_close
                0x00000000        0x2 ../../ecrobot/../ecrobot/libecrobot.a(uart.oram)
 .text.uart_us0_init_irq
                0x00000000       0x38 ../../ecrobot/../ecrobot/libecrobot.a(uart.oram)
 .text.uart_us0_interrupts_enable
                0x00000000        0xc ../../ecrobot/../ecrobot/libecrobot.a(uart.oram)
 .rodata.CSWTCH.6
                0x00000000        0x2 ../../ecrobot/../ecrobot/libecrobot.a(uart.oram)
 .bss.tx_buffer
                0x00000000       0x40 ../../ecrobot/../ecrobot/libecrobot.a(uart.oram)
 .bss.rx_buffer
                0x00000000       0x20 ../../ecrobot/../ecrobot/libecrobot.a(uart.oram)
 .text          0x00000000        0x0 ../../ecrobot/../ecrobot/libecrobot.a(systick.oram)
 .data          0x00000000        0x0 ../../ecrobot/../ecrobot/libecrobot.a(systick.oram)
 .bss           0x00000000        0x0 ../../ecrobot/../ecrobot/libecrobot.a(systick.oram)
 .text.systick_test
                0x00000000       0x18 ../../ecrobot/../ecrobot/libecrobot.a(systick.oram)
 .bss.test_counter
                0x00000000        0x4 ../../ecrobot/../ecrobot/libecrobot.a(systick.oram)
 .text          0x00000000        0x0 ../../ecrobot/../ecrobot/libecrobot.a(byte_fifo.oram)
 .data          0x00000000        0x0 ../../ecrobot/../ecrobot/libecrobot.a(byte_fifo.oram)
 .bss           0x00000000        0x0 ../../ecrobot/../ecrobot/libecrobot.a(byte_fifo.oram)
 .text.byte_fifo_clear
                0x00000000        0xc ../../ecrobot/../ecrobot/libecrobot.a(byte_fifo.oram)
 .text.byte_fifo_init
                0x00000000       0x14 ../../ecrobot/../ecrobot/libecrobot.a(byte_fifo.oram)
 .text          0x00000000        0x0 ../../ecrobot/../ecrobot/libecrobot.a(aic.oram)
 .data          0x00000000        0x0 ../../ecrobot/../ecrobot/libecrobot.a(aic.oram)
 .bss           0x00000000        0x0 ../../ecrobot/../ecrobot/libecrobot.a(aic.oram)
 .text          0x00000000        0x0 ../../ecrobot/../ecrobot/libecrobot.a(udp.oram)
 .data          0x00000000        0x0 ../../ecrobot/../ecrobot/libecrobot.a(udp.oram)
 .bss           0x00000000        0x0 ../../ecrobot/../ecrobot/libecrobot.a(udp.oram)
 .text.udp_reset
                0x00000000       0xc0 ../../ecrobot/../ecrobot/libecrobot.a(udp.oram)
 .text.udp_read
                0x00000000       0xf4 ../../ecrobot/../ecrobot/libecrobot.a(udp.oram)
 .text.udp_write
                0x00000000       0x9c ../../ecrobot/../ecrobot/libecrobot.a(udp.oram)
 .text.udp_status
                0x00000000       0x58 ../../ecrobot/../ecrobot/libecrobot.a(udp.oram)
 .text.udp_enable
                0x00000000       0x6c ../../ecrobot/../ecrobot/libecrobot.a(udp.oram)
 .text.udp_disable
                0x00000000       0x40 ../../ecrobot/../ecrobot/libecrobot.a(udp.oram)
 .text.udp_init
                0x00000000       0x1c ../../ecrobot/../ecrobot/libecrobot.a(udp.oram)
 .text.udp_set_serialno
                0x00000000       0x20 ../../ecrobot/../ecrobot/libecrobot.a(udp.oram)
 .text.udp_set_name
                0x00000000       0x28 ../../ecrobot/../ecrobot/libecrobot.a(udp.oram)
 .text          0x00000000        0x0 ../../ecrobot/../ecrobot/libecrobot.a(twi.oram)
 .data          0x00000000        0x0 ../../ecrobot/../ecrobot/libecrobot.a(twi.oram)
 .bss           0x00000000        0x0 ../../ecrobot/../ecrobot/libecrobot.a(twi.oram)
 .text          0x00000000        0x0 ../../ecrobot/../ecrobot/libecrobot.a(nxt_spi.oram)
 .data          0x00000000        0x0 ../../ecrobot/../ecrobot/libecrobot.a(nxt_spi.oram)
 .bss           0x00000000        0x0 ../../ecrobot/../ecrobot/libecrobot.a(nxt_spi.oram)
 .text          0x00000000        0x0 ../../ecrobot/../ecrobot/libecrobot.a(nxt_motors.oram)
 .data          0x00000000        0x0 ../../ecrobot/../ecrobot/libecrobot.a(nxt_motors.oram)
 .bss           0x00000000        0x0 ../../ecrobot/../ecrobot/libecrobot.a(nxt_motors.oram)
 .text.nxt_motor_get_count
                0x00000000       0x18 ../../ecrobot/../ecrobot/libecrobot.a(nxt_motors.oram)
 .text.nxt_motor_set_speed
                0x00000000       0x30 ../../ecrobot/../ecrobot/libecrobot.a(nxt_motors.oram)
 .text.nxt_motor_command
                0x00000000       0x18 ../../ecrobot/../ecrobot/libecrobot.a(nxt_motors.oram)
 .text          0x00000000        0x0 ../../ecrobot/../ecrobot/libecrobot.a(data_abort.oram)
 .data          0x00000000        0x0 ../../ecrobot/../ecrobot/libecrobot.a(data_abort.oram)
 .bss           0x00000000        0x0 ../../ecrobot/../ecrobot/libecrobot.a(data_abort.oram)
 .text          0x00000000        0x0 ../../ecrobot/../ecrobot/libecrobot.a(display.oram)
 .data          0x00000000        0x0 ../../ecrobot/../ecrobot/libecrobot.a(display.oram)
 .bss           0x00000000        0x0 ../../ecrobot/../ecrobot/libecrobot.a(display.oram)
 .text.display_set_auto_update
                0x00000000        0xc ../../ecrobot/../ecrobot/libecrobot.a(display.oram)
 .text.display_get_buffer
                0x00000000        0xc ../../ecrobot/../ecrobot/libecrobot.a(display.oram)
 .text.display_get_array
                0x00000000        0x8 ../../ecrobot/../ecrobot/libecrobot.a(display.oram)
 .text.display_test
                0x00000000       0xb4 ../../ecrobot/../ecrobot/libecrobot.a(display.oram)
 .text          0x00000000        0x0 ../../ecrobot/../ecrobot/libecrobot.a(i2c.oram)
 .data          0x00000000        0x0 ../../ecrobot/../ecrobot/libecrobot.a(i2c.oram)
 .bss           0x00000000        0x0 ../../ecrobot/../ecrobot/libecrobot.a(i2c.oram)
 .text          0x00000000        0x0 ../../ecrobot/../ecrobot/libecrobot.a(sound.oram)
 .data          0x00000000        0x0 ../../ecrobot/../ecrobot/libecrobot.a(sound.oram)
 .bss           0x00000000        0x0 ../../ecrobot/../ecrobot/libecrobot.a(sound.oram)
 .text.set_vol  0x00000000       0x98 ../../ecrobot/../ecrobot/libecrobot.a(sound.oram)
 .text.sound_freq_vol
                0x00000000      0x184 ../../ecrobot/../ecrobot/libecrobot.a(sound.oram)
 .text.sound_freq
                0x00000000        0xe ../../ecrobot/../ecrobot/libecrobot.a(sound.oram)
 .text.sound_play_sample
                0x00000000       0x90 ../../ecrobot/../ecrobot/libecrobot.a(sound.oram)
 .text.sound_get_time
                0x00000000       0x80 ../../ecrobot/../ecrobot/libecrobot.a(sound.oram)
 .rodata.sine   0x00000000       0x10 ../../ecrobot/../ecrobot/libecrobot.a(sound.oram)
 .rodata.logvol
                0x00000000        0xc ../../ecrobot/../ecrobot/libecrobot.a(sound.oram)
 .text          0x00000000        0x0 ../../ecrobot/../ecrobot/libecrobot.a(bt.oram)
 .data          0x00000000        0x0 ../../ecrobot/../ecrobot/libecrobot.a(bt.oram)
 .bss           0x00000000        0x0 ../../ecrobot/../ecrobot/libecrobot.a(bt.oram)
 .text.bt_start_ad_converter
                0x00000000        0x2 ../../ecrobot/../ecrobot/libecrobot.a(bt.oram)
 .text.bt_get_mode
                0x00000000        0xc ../../ecrobot/../ecrobot/libecrobot.a(bt.oram)
 .text.bt_send  0x00000000       0x4c ../../ecrobot/../ecrobot/libecrobot.a(bt.oram)
 .text.bt_write
                0x00000000       0x58 ../../ecrobot/../ecrobot/libecrobot.a(bt.oram)
 .text.bt_pending
                0x00000000       0x54 ../../ecrobot/../ecrobot/libecrobot.a(bt.oram)
 .text.bt_clear_arm7_cmd
                0x00000000       0x10 ../../ecrobot/../ecrobot/libecrobot.a(bt.oram)
 .text.bt_set_arm7_cmd
                0x00000000       0x10 ../../ecrobot/../ecrobot/libecrobot.a(bt.oram)
 .text.bt_set_reset_high
                0x00000000       0x10 ../../ecrobot/../ecrobot/libecrobot.a(bt.oram)
 .text.bt_receive
                0x00000000      0x12c ../../ecrobot/../ecrobot/libecrobot.a(bt.oram)
 .text.bt_read  0x00000000      0x124 ../../ecrobot/../ecrobot/libecrobot.a(bt.oram)
 .text.bt_set_reset_low
                0x00000000       0x10 ../../ecrobot/../ecrobot/libecrobot.a(bt.oram)
 .text.bt_reset
                0x00000000       0x74 ../../ecrobot/../ecrobot/libecrobot.a(bt.oram)
 .bss.out_buf   0x00000000      0x200 ../../ecrobot/../ecrobot/libecrobot.a(bt.oram)
 .text          0x00000000        0x0 ../../ecrobot/../ecrobot/libecrobot.a(nxt_avr.oram)
 .data          0x00000000        0x0 ../../ecrobot/../ecrobot/libecrobot.a(nxt_avr.oram)
 .bss           0x00000000        0x0 ../../ecrobot/../ecrobot/libecrobot.a(nxt_avr.oram)
 .text.nxt_avr_firmware_update_mode
                0x00000000       0x10 ../../ecrobot/../ecrobot/libecrobot.a(nxt_avr.oram)
 .text.sensor_adc
                0x00000000       0x24 ../../ecrobot/../ecrobot/libecrobot.a(nxt_avr.oram)
 .text.nxt_avr_set_motor
                0x00000000       0x28 ../../ecrobot/../ecrobot/libecrobot.a(nxt_avr.oram)
 .text          0x00000000        0x0 ../../ecrobot/../ecrobot/libecrobot.a(sensors.oram)
 .data          0x00000000        0x0 ../../ecrobot/../ecrobot/libecrobot.a(sensors.oram)
 .bss           0x00000000        0x0 ../../ecrobot/../ecrobot/libecrobot.a(sensors.oram)
 .text.poll_sensors
                0x00000000       0x20 ../../ecrobot/../ecrobot/libecrobot.a(sensors.oram)
 .text.read_buttons
                0x00000000       0x10 ../../ecrobot/../ecrobot/libecrobot.a(sensors.oram)
 .text.check_for_data
                0x00000000        0x6 ../../ecrobot/../ecrobot/libecrobot.a(sensors.oram)
 .text.set_digi0
                0x00000000       0x48 ../../ecrobot/../ecrobot/libecrobot.a(sensors.oram)
 .text.set_digi1
                0x00000000       0x48 ../../ecrobot/../ecrobot/libecrobot.a(sensors.oram)
 .bss.sensors   0x00000000       0x20 ../../ecrobot/../ecrobot/libecrobot.a(sensors.oram)
 .text          0x00000000        0x0 ../../ecrobot/../ecrobot/libecrobot.a(sensors1.oram)
 .data          0x00000000        0x0 ../../ecrobot/../ecrobot/libecrobot.a(sensors1.oram)
 .bss           0x00000000        0x0 ../../ecrobot/../ecrobot/libecrobot.a(sensors1.oram)
 .text.sp_read  0x00000000       0x20 ../../ecrobot/../ecrobot/libecrobot.a(sensors1.oram)
 .text.sp_set_mode
                0x00000000       0x80 ../../ecrobot/../ecrobot/libecrobot.a(sensors1.oram)
 .text.sp_get   0x00000000       0x20 ../../ecrobot/../ecrobot/libecrobot.a(sensors1.oram)
 .text.sp_set   0x00000000       0x28 ../../ecrobot/../ecrobot/libecrobot.a(sensors1.oram)
 .text.sp_set_power
                0x00000000        0xc ../../ecrobot/../ecrobot/libecrobot.a(sensors1.oram)
 .text.sp_reset
                0x00000000       0x60 ../../ecrobot/../ecrobot/libecrobot.a(sensors1.oram)
 .text.sp_init  0x00000000       0x20 ../../ecrobot/../ecrobot/libecrobot.a(sensors1.oram)
 .rodata.sensor_pins
                0x00000000       0x40 ../../ecrobot/../ecrobot/libecrobot.a(sensors1.oram)
 .comment       0x00000000       0x31 ../../ecrobot/../ecrobot/libecrobot.a(sensors1.oram)
 .ARM.attributes
                0x00000000       0x32 ../../ecrobot/../ecrobot/libecrobot.a(sensors1.oram)
 .text          0x00000000        0x0 ../../ecrobot/../ecrobot/libecrobot.a(nxt_lcd.oram)
 .data          0x00000000        0x0 ../../ecrobot/../ecrobot/libecrobot.a(nxt_lcd.oram)
 .bss           0x00000000        0x0 ../../ecrobot/../ecrobot/libecrobot.a(nxt_lcd.oram)
 .text.nxt_lcd_set_temp_comp
                0x00000000       0x14 ../../ecrobot/../ecrobot/libecrobot.a(nxt_lcd.oram)
 .text.nxt_lcd_set_panel_loading
                0x00000000       0x14 ../../ecrobot/../ecrobot/libecrobot.a(nxt_lcd.oram)
 .text.nxt_lcd_set_pump_control
                0x00000000       0x14 ../../ecrobot/../ecrobot/libecrobot.a(nxt_lcd.oram)
 .text.nxt_lcd_set_scroll_line
                0x00000000       0x14 ../../ecrobot/../ecrobot/libecrobot.a(nxt_lcd.oram)
 .text.nxt_lcd_set_frame_rate
                0x00000000       0x14 ../../ecrobot/../ecrobot/libecrobot.a(nxt_lcd.oram)
 .text.nxt_lcd_set_all_pixels_on
                0x00000000       0x14 ../../ecrobot/../ecrobot/libecrobot.a(nxt_lcd.oram)
 .text.nxt_lcd_inverse_display
                0x00000000       0x14 ../../ecrobot/../ecrobot/libecrobot.a(nxt_lcd.oram)
 .text.nxt_lcd_set_cursor_update
                0x00000000       0x14 ../../ecrobot/../ecrobot/libecrobot.a(nxt_lcd.oram)
 .text          0x00000000        0x0 ../../ecrobot/../ecrobot/libecrobot.a(flash_loader.oram)
 .data          0x00000000        0x0 ../../ecrobot/../ecrobot/libecrobot.a(flash_loader.oram)
 .bss           0x00000000        0x0 ../../ecrobot/../ecrobot/libecrobot.a(flash_loader.oram)
 .text.is_bios_version_equal
                0x00000000       0x1c ../../ecrobot/../ecrobot/libecrobot.a(flash_loader.oram)
 .text.has_flash_request
                0x00000000       0x1c ../../ecrobot/../ecrobot/libecrobot.a(flash_loader.oram)
 .text.clear_flash_request
                0x00000000       0x2a ../../ecrobot/../ecrobot/libecrobot.a(flash_loader.oram)
 .text.terminate_flash
                0x00000000       0x22 ../../ecrobot/../ecrobot/libecrobot.a(flash_loader.oram)
 .text.exec_app
                0x00000000       0x2c ../../ecrobot/../ecrobot/libecrobot.a(flash_loader.oram)
 .text.flash_loader
                0x00000000      0x1bc ../../ecrobot/../ecrobot/libecrobot.a(flash_loader.oram)
 .data          0x00000000        0x0 ../../ecrobot/../ecrobot/libecrobot.a(interrupts.oram)
 .bss           0x00000000        0x0 ../../ecrobot/../ecrobot/libecrobot.a(interrupts.oram)
 .text          0x00000000        0x0 ../../ecrobot/../ecrobot/libecrobot.a(ecrobot_usb.o)
 .data          0x00000000        0x0 ../../ecrobot/../ecrobot/libecrobot.a(ecrobot_usb.o)
 .bss           0x00000000        0x0 ../../ecrobot/../ecrobot/libecrobot.a(ecrobot_usb.o)
 .text.ecrobot_init_usb
                0x00000000       0x4c ../../ecrobot/../ecrobot/libecrobot.a(ecrobot_usb.o)
 .text.ecrobot_set_name_usb
                0x00000000       0x3c ../../ecrobot/../ecrobot/libecrobot.a(ecrobot_usb.o)
 .text.ecrobot_process1ms_usb
                0x00000000       0xd8 ../../ecrobot/../ecrobot/libecrobot.a(ecrobot_usb.o)
 .text.ecrobot_is_usb_connected
                0x00000000       0x10 ../../ecrobot/../ecrobot/libecrobot.a(ecrobot_usb.o)
 .text.ecrobot_read_usb
                0x00000000       0x48 ../../ecrobot/../ecrobot/libecrobot.a(ecrobot_usb.o)
 .text.ecrobot_send_usb
                0x00000000       0x20 ../../ecrobot/../ecrobot/libecrobot.a(ecrobot_usb.o)
 .text.ecrobot_term_usb
                0x00000000       0x18 ../../ecrobot/../ecrobot/libecrobot.a(ecrobot_usb.o)
 .text.ecrobot_disconnect_usb
                0x00000000       0x20 ../../ecrobot/../ecrobot/libecrobot.a(ecrobot_usb.o)
 .bss.read_data_len
                0x00000000        0x4 ../../ecrobot/../ecrobot/libecrobot.a(ecrobot_usb.o)
 .rodata.ecrobot_sig
                0x00000000        0x7 ../../ecrobot/../ecrobot/libecrobot.a(ecrobot_usb.o)
 .bss.usb_buf   0x00000000       0x40 ../../ecrobot/../ecrobot/libecrobot.a(ecrobot_usb.o)
 .rodata.str1.1
                0x00000000       0x11 ../../ecrobot/../ecrobot/libecrobot.a(ecrobot_usb.o)
 .data.dev_name
                0x00000000       0x10 ../../ecrobot/../ecrobot/libecrobot.a(ecrobot_usb.o)
 .bss.usb_status
                0x00000000        0x1 ../../ecrobot/../ecrobot/libecrobot.a(ecrobot_usb.o)
 .comment       0x00000000       0x31 ../../ecrobot/../ecrobot/libecrobot.a(ecrobot_usb.o)
 .ARM.attributes
                0x00000000       0x32 ../../ecrobot/../ecrobot/libecrobot.a(ecrobot_usb.o)
 .text          0x00000000        0x0 ../../ecrobot/../ecrobot/libecrobot.a(flashprog.oram)
 .data          0x00000000        0x0 ../../ecrobot/../ecrobot/libecrobot.a(flashprog.oram)
 .bss           0x00000000        0x0 ../../ecrobot/../ecrobot/libecrobot.a(flashprog.oram)
 .text.flash_set_mode
                0x00000000       0x10 ../../ecrobot/../ecrobot/libecrobot.a(flashprog.oram)
 .text.flash_erase_range
                0x00000000       0x14 ../../ecrobot/../ecrobot/libecrobot.a(flashprog.oram)
 .text.flash_write
                0x00000000       0x14 ../../ecrobot/../ecrobot/libecrobot.a(flashprog.oram)
 .data          0x00000000        0x0 /home/adrian/CodeSourcery/Sourcery_CodeBench_Lite_for_ARM_EABI/bin/../lib/gcc/arm-none-eabi/4.6.3/thumb/libgcc.a(_thumb1_case_uqi.o)
 .bss           0x00000000        0x0 /home/adrian/CodeSourcery/Sourcery_CodeBench_Lite_for_ARM_EABI/bin/../lib/gcc/arm-none-eabi/4.6.3/thumb/libgcc.a(_thumb1_case_uqi.o)
 .data          0x00000000        0x0 /home/adrian/CodeSourcery/Sourcery_CodeBench_Lite_for_ARM_EABI/bin/../lib/gcc/arm-none-eabi/4.6.3/thumb/libgcc.a(_thumb1_case_uhi.o)
 .bss           0x00000000        0x0 /home/adrian/CodeSourcery/Sourcery_CodeBench_Lite_for_ARM_EABI/bin/../lib/gcc/arm-none-eabi/4.6.3/thumb/libgcc.a(_thumb1_case_uhi.o)
 .data          0x00000000        0x0 /home/adrian/CodeSourcery/Sourcery_CodeBench_Lite_for_ARM_EABI/bin/../lib/gcc/arm-none-eabi/4.6.3/thumb/libgcc.a(_udivsi3.o)
 .bss           0x00000000        0x0 /home/adrian/CodeSourcery/Sourcery_CodeBench_Lite_for_ARM_EABI/bin/../lib/gcc/arm-none-eabi/4.6.3/thumb/libgcc.a(_udivsi3.o)
 .data          0x00000000        0x0 /home/adrian/CodeSourcery/Sourcery_CodeBench_Lite_for_ARM_EABI/bin/../lib/gcc/arm-none-eabi/4.6.3/thumb/libgcc.a(_divsi3.o)
 .bss           0x00000000        0x0 /home/adrian/CodeSourcery/Sourcery_CodeBench_Lite_for_ARM_EABI/bin/../lib/gcc/arm-none-eabi/4.6.3/thumb/libgcc.a(_divsi3.o)
 .data          0x00000000        0x0 /home/adrian/CodeSourcery/Sourcery_CodeBench_Lite_for_ARM_EABI/bin/../lib/gcc/arm-none-eabi/4.6.3/thumb/libgcc.a(_dvmd_tls.o)
 .bss           0x00000000        0x0 /home/adrian/CodeSourcery/Sourcery_CodeBench_Lite_for_ARM_EABI/bin/../lib/gcc/arm-none-eabi/4.6.3/thumb/libgcc.a(_dvmd_tls.o)
 .text          0x00000000      0x41c /home/adrian/CodeSourcery/Sourcery_CodeBench_Lite_for_ARM_EABI/bin/../lib/gcc/arm-none-eabi/4.6.3/thumb/libgcc.a(_arm_addsubdf3.o)
 .data          0x00000000        0x0 /home/adrian/CodeSourcery/Sourcery_CodeBench_Lite_for_ARM_EABI/bin/../lib/gcc/arm-none-eabi/4.6.3/thumb/libgcc.a(_arm_addsubdf3.o)
 .bss           0x00000000        0x0 /home/adrian/CodeSourcery/Sourcery_CodeBench_Lite_for_ARM_EABI/bin/../lib/gcc/arm-none-eabi/4.6.3/thumb/libgcc.a(_arm_addsubdf3.o)
 .ARM.attributes
                0x00000000       0x1a /home/adrian/CodeSourcery/Sourcery_CodeBench_Lite_for_ARM_EABI/bin/../lib/gcc/arm-none-eabi/4.6.3/thumb/libgcc.a(_arm_addsubdf3.o)
 .text          0x00000000      0x49c /home/adrian/CodeSourcery/Sourcery_CodeBench_Lite_for_ARM_EABI/bin/../lib/gcc/arm-none-eabi/4.6.3/thumb/libgcc.a(_arm_muldivdf3.o)
 .data          0x00000000        0x0 /home/adrian/CodeSourcery/Sourcery_CodeBench_Lite_for_ARM_EABI/bin/../lib/gcc/arm-none-eabi/4.6.3/thumb/libgcc.a(_arm_muldivdf3.o)
 .bss           0x00000000        0x0 /home/adrian/CodeSourcery/Sourcery_CodeBench_Lite_for_ARM_EABI/bin/../lib/gcc/arm-none-eabi/4.6.3/thumb/libgcc.a(_arm_muldivdf3.o)
 .ARM.attributes
                0x00000000       0x1a /home/adrian/CodeSourcery/Sourcery_CodeBench_Lite_for_ARM_EABI/bin/../lib/gcc/arm-none-eabi/4.6.3/thumb/libgcc.a(_arm_muldivdf3.o)
 .text          0x00000000      0x144 /home/adrian/CodeSourcery/Sourcery_CodeBench_Lite_for_ARM_EABI/bin/../lib/gcc/arm-none-eabi/4.6.3/thumb/libgcc.a(_arm_cmpdf2.o)
 .data          0x00000000        0x0 /home/adrian/CodeSourcery/Sourcery_CodeBench_Lite_for_ARM_EABI/bin/../lib/gcc/arm-none-eabi/4.6.3/thumb/libgcc.a(_arm_cmpdf2.o)
 .bss           0x00000000        0x0 /home/adrian/CodeSourcery/Sourcery_CodeBench_Lite_for_ARM_EABI/bin/../lib/gcc/arm-none-eabi/4.6.3/thumb/libgcc.a(_arm_cmpdf2.o)
 .ARM.attributes
                0x00000000       0x1a /home/adrian/CodeSourcery/Sourcery_CodeBench_Lite_for_ARM_EABI/bin/../lib/gcc/arm-none-eabi/4.6.3/thumb/libgcc.a(_arm_cmpdf2.o)
 .text          0x00000000       0x44 /home/adrian/CodeSourcery/Sourcery_CodeBench_Lite_for_ARM_EABI/bin/../lib/gcc/arm-none-eabi/4.6.3/thumb/libgcc.a(_aeabi_ldivmod.o)
 .data          0x00000000        0x0 /home/adrian/CodeSourcery/Sourcery_CodeBench_Lite_for_ARM_EABI/bin/../lib/gcc/arm-none-eabi/4.6.3/thumb/libgcc.a(_aeabi_ldivmod.o)
 .bss           0x00000000        0x0 /home/adrian/CodeSourcery/Sourcery_CodeBench_Lite_for_ARM_EABI/bin/../lib/gcc/arm-none-eabi/4.6.3/thumb/libgcc.a(_aeabi_ldivmod.o)
 .ARM.attributes
                0x00000000       0x1a /home/adrian/CodeSourcery/Sourcery_CodeBench_Lite_for_ARM_EABI/bin/../lib/gcc/arm-none-eabi/4.6.3/thumb/libgcc.a(_aeabi_ldivmod.o)
 .data          0x00000000        0x0 /home/adrian/CodeSourcery/Sourcery_CodeBench_Lite_for_ARM_EABI/bin/../lib/gcc/arm-none-eabi/4.6.3/thumb/libgcc.a(_muldi3.o)
 .bss           0x00000000        0x0 /home/adrian/CodeSourcery/Sourcery_CodeBench_Lite_for_ARM_EABI/bin/../lib/gcc/arm-none-eabi/4.6.3/thumb/libgcc.a(_muldi3.o)
 .text          0x00000000       0x74 /home/adrian/CodeSourcery/Sourcery_CodeBench_Lite_for_ARM_EABI/bin/../lib/gcc/arm-none-eabi/4.6.3/thumb/libgcc.a(bpabi.o)
 .data          0x00000000        0x0 /home/adrian/CodeSourcery/Sourcery_CodeBench_Lite_for_ARM_EABI/bin/../lib/gcc/arm-none-eabi/4.6.3/thumb/libgcc.a(bpabi.o)
 .bss           0x00000000        0x0 /home/adrian/CodeSourcery/Sourcery_CodeBench_Lite_for_ARM_EABI/bin/../lib/gcc/arm-none-eabi/4.6.3/thumb/libgcc.a(bpabi.o)
 .ARM.attributes
                0x00000000       0x32 /home/adrian/CodeSourcery/Sourcery_CodeBench_Lite_for_ARM_EABI/bin/../lib/gcc/arm-none-eabi/4.6.3/thumb/libgcc.a(bpabi.o)
 .debug_frame   0x00000000       0x50 /home/adrian/CodeSourcery/Sourcery_CodeBench_Lite_for_ARM_EABI/bin/../lib/gcc/arm-none-eabi/4.6.3/thumb/libgcc.a(bpabi.o)
 .text          0x00000000      0x3cc /home/adrian/CodeSourcery/Sourcery_CodeBench_Lite_for_ARM_EABI/bin/../lib/gcc/arm-none-eabi/4.6.3/thumb/libgcc.a(_divdi3.o)
 .data          0x00000000        0x0 /home/adrian/CodeSourcery/Sourcery_CodeBench_Lite_for_ARM_EABI/bin/../lib/gcc/arm-none-eabi/4.6.3/thumb/libgcc.a(_divdi3.o)
 .bss           0x00000000        0x0 /home/adrian/CodeSourcery/Sourcery_CodeBench_Lite_for_ARM_EABI/bin/../lib/gcc/arm-none-eabi/4.6.3/thumb/libgcc.a(_divdi3.o)
 .ARM.extab     0x00000000        0x0 /home/adrian/CodeSourcery/Sourcery_CodeBench_Lite_for_ARM_EABI/bin/../lib/gcc/arm-none-eabi/4.6.3/thumb/libgcc.a(_divdi3.o)
 .ARM.exidx     0x00000000        0x8 /home/adrian/CodeSourcery/Sourcery_CodeBench_Lite_for_ARM_EABI/bin/../lib/gcc/arm-none-eabi/4.6.3/thumb/libgcc.a(_divdi3.o)
 .ARM.attributes
                0x00000000       0x32 /home/adrian/CodeSourcery/Sourcery_CodeBench_Lite_for_ARM_EABI/bin/../lib/gcc/arm-none-eabi/4.6.3/thumb/libgcc.a(_divdi3.o)
 .debug_frame   0x00000000       0x3c /home/adrian/CodeSourcery/Sourcery_CodeBench_Lite_for_ARM_EABI/bin/../lib/gcc/arm-none-eabi/4.6.3/thumb/libgcc.a(_divdi3.o)
 .text          0x00000000      0x370 /home/adrian/CodeSourcery/Sourcery_CodeBench_Lite_for_ARM_EABI/bin/../lib/gcc/arm-none-eabi/4.6.3/thumb/libgcc.a(_udivdi3.o)
 .data          0x00000000        0x0 /home/adrian/CodeSourcery/Sourcery_CodeBench_Lite_for_ARM_EABI/bin/../lib/gcc/arm-none-eabi/4.6.3/thumb/libgcc.a(_udivdi3.o)
 .bss           0x00000000        0x0 /home/adrian/CodeSourcery/Sourcery_CodeBench_Lite_for_ARM_EABI/bin/../lib/gcc/arm-none-eabi/4.6.3/thumb/libgcc.a(_udivdi3.o)
 .ARM.extab     0x00000000        0x0 /home/adrian/CodeSourcery/Sourcery_CodeBench_Lite_for_ARM_EABI/bin/../lib/gcc/arm-none-eabi/4.6.3/thumb/libgcc.a(_udivdi3.o)
 .ARM.exidx     0x00000000        0x8 /home/adrian/CodeSourcery/Sourcery_CodeBench_Lite_for_ARM_EABI/bin/../lib/gcc/arm-none-eabi/4.6.3/thumb/libgcc.a(_udivdi3.o)
 .ARM.attributes
                0x00000000       0x32 /home/adrian/CodeSourcery/Sourcery_CodeBench_Lite_for_ARM_EABI/bin/../lib/gcc/arm-none-eabi/4.6.3/thumb/libgcc.a(_udivdi3.o)
 .debug_frame   0x00000000       0x3c /home/adrian/CodeSourcery/Sourcery_CodeBench_Lite_for_ARM_EABI/bin/../lib/gcc/arm-none-eabi/4.6.3/thumb/libgcc.a(_udivdi3.o)
 .text          0x00000000       0x48 /home/adrian/CodeSourcery/Sourcery_CodeBench_Lite_for_ARM_EABI/bin/../lib/gcc/arm-none-eabi/4.6.3/thumb/libgcc.a(_clzsi2.o)
 .data          0x00000000        0x0 /home/adrian/CodeSourcery/Sourcery_CodeBench_Lite_for_ARM_EABI/bin/../lib/gcc/arm-none-eabi/4.6.3/thumb/libgcc.a(_clzsi2.o)
 .bss           0x00000000        0x0 /home/adrian/CodeSourcery/Sourcery_CodeBench_Lite_for_ARM_EABI/bin/../lib/gcc/arm-none-eabi/4.6.3/thumb/libgcc.a(_clzsi2.o)
 .ARM.attributes
                0x00000000       0x1a /home/adrian/CodeSourcery/Sourcery_CodeBench_Lite_for_ARM_EABI/bin/../lib/gcc/arm-none-eabi/4.6.3/thumb/libgcc.a(_clzsi2.o)
 .data          0x00000000        0x0 /home/adrian/CodeSourcery/Sourcery_CodeBench_Lite_for_ARM_EABI/bin/../lib/gcc/arm-none-eabi/4.6.3/../../../../arm-none-eabi/lib/thumb/libc.a(lib_a-cxa_finalize.o)
 .bss           0x00000000        0x0 /home/adrian/CodeSourcery/Sourcery_CodeBench_Lite_for_ARM_EABI/bin/../lib/gcc/arm-none-eabi/4.6.3/../../../../arm-none-eabi/lib/thumb/libc.a(lib_a-cxa_finalize.o)
 .text          0x00000000      0x108 /home/adrian/CodeSourcery/Sourcery_CodeBench_Lite_for_ARM_EABI/bin/../lib/gcc/arm-none-eabi/4.6.3/../../../../arm-none-eabi/lib/thumb/libc.a(lib_a-memcpy.o)
 .data          0x00000000        0x0 /home/adrian/CodeSourcery/Sourcery_CodeBench_Lite_for_ARM_EABI/bin/../lib/gcc/arm-none-eabi/4.6.3/../../../../arm-none-eabi/lib/thumb/libc.a(lib_a-memcpy.o)
 .bss           0x00000000        0x0 /home/adrian/CodeSourcery/Sourcery_CodeBench_Lite_for_ARM_EABI/bin/../lib/gcc/arm-none-eabi/4.6.3/../../../../arm-none-eabi/lib/thumb/libc.a(lib_a-memcpy.o)
 .ARM.attributes
                0x00000000       0x32 /home/adrian/CodeSourcery/Sourcery_CodeBench_Lite_for_ARM_EABI/bin/../lib/gcc/arm-none-eabi/4.6.3/../../../../arm-none-eabi/lib/thumb/libc.a(lib_a-memcpy.o)
 .debug_frame   0x00000000       0x38 /home/adrian/CodeSourcery/Sourcery_CodeBench_Lite_for_ARM_EABI/bin/../lib/gcc/arm-none-eabi/4.6.3/../../../../arm-none-eabi/lib/thumb/libc.a(lib_a-memcpy.o)
 .data          0x00000000        0x0 /home/adrian/CodeSourcery/Sourcery_CodeBench_Lite_for_ARM_EABI/bin/../lib/gcc/arm-none-eabi/4.6.3/../../../../arm-none-eabi/lib/thumb/libc.a(lib_a-memset.o)
 .bss           0x00000000        0x0 /home/adrian/CodeSourcery/Sourcery_CodeBench_Lite_for_ARM_EABI/bin/../lib/gcc/arm-none-eabi/4.6.3/../../../../arm-none-eabi/lib/thumb/libc.a(lib_a-memset.o)
 .data          0x00000000        0x0 /home/adrian/CodeSourcery/Sourcery_CodeBench_Lite_for_ARM_EABI/bin/../lib/gcc/arm-none-eabi/4.6.3/../../../../arm-none-eabi/lib/thumb/libc.a(lib_a-rand.o)
 .bss           0x00000000        0x0 /home/adrian/CodeSourcery/Sourcery_CodeBench_Lite_for_ARM_EABI/bin/../lib/gcc/arm-none-eabi/4.6.3/../../../../arm-none-eabi/lib/thumb/libc.a(lib_a-rand.o)
 .text          0x00000000       0x14 /home/adrian/CodeSourcery/Sourcery_CodeBench_Lite_for_ARM_EABI/bin/../lib/gcc/arm-none-eabi/4.6.3/../../../../arm-none-eabi/lib/thumb/libc.a(lib_a-strcmp.o)
 .data          0x00000000        0x0 /home/adrian/CodeSourcery/Sourcery_CodeBench_Lite_for_ARM_EABI/bin/../lib/gcc/arm-none-eabi/4.6.3/../../../../arm-none-eabi/lib/thumb/libc.a(lib_a-strcmp.o)
 .bss           0x00000000        0x0 /home/adrian/CodeSourcery/Sourcery_CodeBench_Lite_for_ARM_EABI/bin/../lib/gcc/arm-none-eabi/4.6.3/../../../../arm-none-eabi/lib/thumb/libc.a(lib_a-strcmp.o)
 .ARM.attributes
                0x00000000       0x32 /home/adrian/CodeSourcery/Sourcery_CodeBench_Lite_for_ARM_EABI/bin/../lib/gcc/arm-none-eabi/4.6.3/../../../../arm-none-eabi/lib/thumb/libc.a(lib_a-strcmp.o)
 .debug_frame   0x00000000       0x20 /home/adrian/CodeSourcery/Sourcery_CodeBench_Lite_for_ARM_EABI/bin/../lib/gcc/arm-none-eabi/4.6.3/../../../../arm-none-eabi/lib/thumb/libc.a(lib_a-strcmp.o)
 .data          0x00000000        0x0 /home/adrian/CodeSourcery/Sourcery_CodeBench_Lite_for_ARM_EABI/bin/../lib/gcc/arm-none-eabi/4.6.3/../../../../arm-none-eabi/lib/thumb/libc.a(lib_a-strcpy.o)
 .bss           0x00000000        0x0 /home/adrian/CodeSourcery/Sourcery_CodeBench_Lite_for_ARM_EABI/bin/../lib/gcc/arm-none-eabi/4.6.3/../../../../arm-none-eabi/lib/thumb/libc.a(lib_a-strcpy.o)
 .data          0x00000000        0x0 /home/adrian/CodeSourcery/Sourcery_CodeBench_Lite_for_ARM_EABI/bin/../lib/gcc/arm-none-eabi/4.6.3/../../../../arm-none-eabi/lib/thumb/libc.a(lib_a-strlen.o)
 .bss           0x00000000        0x0 /home/adrian/CodeSourcery/Sourcery_CodeBench_Lite_for_ARM_EABI/bin/../lib/gcc/arm-none-eabi/4.6.3/../../../../arm-none-eabi/lib/thumb/libc.a(lib_a-strlen.o)
 .text          0x00000000       0x78 /home/adrian/CodeSourcery/Sourcery_CodeBench_Lite_for_ARM_EABI/bin/../lib/gcc/arm-none-eabi/4.6.3/../../../../arm-none-eabi/lib/thumb/libc.a(lib_a-strncpy.o)
 .data          0x00000000        0x0 /home/adrian/CodeSourcery/Sourcery_CodeBench_Lite_for_ARM_EABI/bin/../lib/gcc/arm-none-eabi/4.6.3/../../../../arm-none-eabi/lib/thumb/libc.a(lib_a-strncpy.o)
 .bss           0x00000000        0x0 /home/adrian/CodeSourcery/Sourcery_CodeBench_Lite_for_ARM_EABI/bin/../lib/gcc/arm-none-eabi/4.6.3/../../../../arm-none-eabi/lib/thumb/libc.a(lib_a-strncpy.o)
 .ARM.attributes
                0x00000000       0x32 /home/adrian/CodeSourcery/Sourcery_CodeBench_Lite_for_ARM_EABI/bin/../lib/gcc/arm-none-eabi/4.6.3/../../../../arm-none-eabi/lib/thumb/libc.a(lib_a-strncpy.o)
 .debug_frame   0x00000000       0x30 /home/adrian/CodeSourcery/Sourcery_CodeBench_Lite_for_ARM_EABI/bin/../lib/gcc/arm-none-eabi/4.6.3/../../../../arm-none-eabi/lib/thumb/libc.a(lib_a-strncpy.o)
 .data          0x00000000        0x0 /home/adrian/CodeSourcery/Sourcery_CodeBench_Lite_for_ARM_EABI/bin/../lib/gcc/arm-none-eabi/4.6.3/../../../../arm-none-eabi/lib/thumb/libc.a(lib_a-__call_atexit.o)
 .bss           0x00000000        0x0 /home/adrian/CodeSourcery/Sourcery_CodeBench_Lite_for_ARM_EABI/bin/../lib/gcc/arm-none-eabi/4.6.3/../../../../arm-none-eabi/lib/thumb/libc.a(lib_a-__call_atexit.o)
 .text.startup  0x00000000       0x1c /home/adrian/CodeSourcery/Sourcery_CodeBench_Lite_for_ARM_EABI/bin/../lib/gcc/arm-none-eabi/4.6.3/../../../../arm-none-eabi/lib/thumb/libc.a(lib_a-__call_atexit.o)
 .init_array.00000
                0x00000000        0x4 /home/adrian/CodeSourcery/Sourcery_CodeBench_Lite_for_ARM_EABI/bin/../lib/gcc/arm-none-eabi/4.6.3/../../../../arm-none-eabi/lib/thumb/libc.a(lib_a-__call_atexit.o)
 .text          0x00000000       0x14 /home/adrian/CodeSourcery/Sourcery_CodeBench_Lite_for_ARM_EABI/bin/../lib/gcc/arm-none-eabi/4.6.3/../../../../arm-none-eabi/lib/thumb/libc.a(lib_a-atexit.o)
 .data          0x00000000        0x0 /home/adrian/CodeSourcery/Sourcery_CodeBench_Lite_for_ARM_EABI/bin/../lib/gcc/arm-none-eabi/4.6.3/../../../../arm-none-eabi/lib/thumb/libc.a(lib_a-atexit.o)
 .bss           0x00000000        0x0 /home/adrian/CodeSourcery/Sourcery_CodeBench_Lite_for_ARM_EABI/bin/../lib/gcc/arm-none-eabi/4.6.3/../../../../arm-none-eabi/lib/thumb/libc.a(lib_a-atexit.o)
 .ARM.attributes
                0x00000000       0x32 /home/adrian/CodeSourcery/Sourcery_CodeBench_Lite_for_ARM_EABI/bin/../lib/gcc/arm-none-eabi/4.6.3/../../../../arm-none-eabi/lib/thumb/libc.a(lib_a-atexit.o)
 .debug_frame   0x00000000       0x28 /home/adrian/CodeSourcery/Sourcery_CodeBench_Lite_for_ARM_EABI/bin/../lib/gcc/arm-none-eabi/4.6.3/../../../../arm-none-eabi/lib/thumb/libc.a(lib_a-atexit.o)
 .text          0x00000000       0x38 /home/adrian/CodeSourcery/Sourcery_CodeBench_Lite_for_ARM_EABI/bin/../lib/gcc/arm-none-eabi/4.6.3/../../../../arm-none-eabi/lib/thumb/libc.a(lib_a-fini.o)
 .data          0x00000000        0x0 /home/adrian/CodeSourcery/Sourcery_CodeBench_Lite_for_ARM_EABI/bin/../lib/gcc/arm-none-eabi/4.6.3/../../../../arm-none-eabi/lib/thumb/libc.a(lib_a-fini.o)
 .bss           0x00000000        0x0 /home/adrian/CodeSourcery/Sourcery_CodeBench_Lite_for_ARM_EABI/bin/../lib/gcc/arm-none-eabi/4.6.3/../../../../arm-none-eabi/lib/thumb/libc.a(lib_a-fini.o)
 .ARM.attributes
                0x00000000       0x32 /home/adrian/CodeSourcery/Sourcery_CodeBench_Lite_for_ARM_EABI/bin/../lib/gcc/arm-none-eabi/4.6.3/../../../../arm-none-eabi/lib/thumb/libc.a(lib_a-fini.o)
 .debug_frame   0x00000000       0x2c /home/adrian/CodeSourcery/Sourcery_CodeBench_Lite_for_ARM_EABI/bin/../lib/gcc/arm-none-eabi/4.6.3/../../../../arm-none-eabi/lib/thumb/libc.a(lib_a-fini.o)
 .text          0x00000000        0x0 /home/adrian/CodeSourcery/Sourcery_CodeBench_Lite_for_ARM_EABI/bin/../lib/gcc/arm-none-eabi/4.6.3/../../../../arm-none-eabi/lib/thumb/libc.a(lib_a-impure.o)
 .bss           0x00000000        0x0 /home/adrian/CodeSourcery/Sourcery_CodeBench_Lite_for_ARM_EABI/bin/../lib/gcc/arm-none-eabi/4.6.3/../../../../arm-none-eabi/lib/thumb/libc.a(lib_a-impure.o)
 .text          0x00000000       0xcc /home/adrian/CodeSourcery/Sourcery_CodeBench_Lite_for_ARM_EABI/bin/../lib/gcc/arm-none-eabi/4.6.3/../../../../arm-none-eabi/lib/thumb/libc.a(lib_a-__atexit.o)
 .data          0x00000000        0x0 /home/adrian/CodeSourcery/Sourcery_CodeBench_Lite_for_ARM_EABI/bin/../lib/gcc/arm-none-eabi/4.6.3/../../../../arm-none-eabi/lib/thumb/libc.a(lib_a-__atexit.o)
 .bss           0x00000000        0x0 /home/adrian/CodeSourcery/Sourcery_CodeBench_Lite_for_ARM_EABI/bin/../lib/gcc/arm-none-eabi/4.6.3/../../../../arm-none-eabi/lib/thumb/libc.a(lib_a-__atexit.o)
 .ARM.attributes
                0x00000000       0x32 /home/adrian/CodeSourcery/Sourcery_CodeBench_Lite_for_ARM_EABI/bin/../lib/gcc/arm-none-eabi/4.6.3/../../../../arm-none-eabi/lib/thumb/libc.a(lib_a-__atexit.o)
 .debug_frame   0x00000000       0x38 /home/adrian/CodeSourcery/Sourcery_CodeBench_Lite_for_ARM_EABI/bin/../lib/gcc/arm-none-eabi/4.6.3/../../../../arm-none-eabi/lib/thumb/libc.a(lib_a-__atexit.o)
 .data          0x00000000        0x0 build/nxtvm/platform/nxt/vectors.o
 .bss           0x00000000        0x0 build/nxtvm/platform/nxt/vectors.o

Memory Configuration

Name             Origin             Length             Attributes
rom              0x00108000         0x00038000
vector_ram       0x00200000         0x00000040
ram              0x00200040         0x0000ffc0
*default*        0x00000000         0xffffffff

Linker script and memory map

LOAD build/kernel/alarm.o
LOAD build/kernel/event.o
LOAD build/kernel/interrupt.o
LOAD build/kernel/osctl.o
LOAD build/kernel/resource.o
LOAD build/kernel/task.o
LOAD build/kernel/task_manage.o
LOAD build/config/at91sam7s-gnu/cpu_config.o
LOAD build/config/at91sam7s-gnu/lego_nxt/sys_config.o
LOAD build/./kernel_cfg.o
LOAD build/syscalls.o
LOAD build/ecrobot_bluetooth.o
LOAD build/ecrobot_base.o
LOAD build/ecrobot.o
LOAD build/tetrix.o
LOAD build/syslib/at91sam7s-gnu/lego_nxt/hw_sys_timer.oram
LOAD build/nxtvm/platform/nxt/vectors.o
LOAD build/config/at91sam7s-gnu/debug.o
LOAD build/config/at91sam7s-gnu/lego_nxt/sys_support.o
LOAD build/nxt_binary_header.o
LOAD build/nxt_entry_point.o
LOAD build/ecrobot_init.o
LOAD build/config/at91sam7s-gnu/cpu_support.oram
LOAD build/config/at91sam7s-gnu/irq.oram
LOAD ../../ecrobot/../c++/liblejososek.a
LOAD ../../ecrobot/../ecrobot/libecrobot.a
LOAD /home/adrian/CodeSourcery/Sourcery_CodeBench_Lite_for_ARM_EABI/bin/../lib/gcc/arm-none-eabi/4.6.3/../../../../arm-none-eabi/lib/thumb/libstdc++.a
LOAD /home/adrian/CodeSourcery/Sourcery_CodeBench_Lite_for_ARM_EABI/bin/../lib/gcc/arm-none-eabi/4.6.3/../../../../arm-none-eabi/lib/thumb/libm.a
START GROUP
LOAD /home/adrian/CodeSourcery/Sourcery_CodeBench_Lite_for_ARM_EABI/bin/../lib/gcc/arm-none-eabi/4.6.3/thumb/libgcc.a
LOAD /home/adrian/CodeSourcery/Sourcery_CodeBench_Lite_for_ARM_EABI/bin/../lib/gcc/arm-none-eabi/4.6.3/../../../../arm-none-eabi/lib/thumb/libc.a
END GROUP
                0x00108000                ROM_BASE = 0x108000
                0x00038000                ROM_SIZE = 0x38000
                0x00200000                RAM_BASE = 0x200000
                0x00010000                RAM_SIZE = 0x10000

.vectors        0x00200000       0x40 load address 0x00108000
 vectors.o(*.text *.text.*)
 .text          0x00200000       0x38 build/nxtvm/platform/nxt/vectors.o
                0x00200040                . = ALIGN (0x10)
 *fill*         0x00200038        0x8 00
                0x00200000                __vectors_ram_start__ = ADDR (.vectors)
                0x00200040                __vectors_ram_end__ = (ADDR (.vectors) + SIZEOF (.vectors))
                0x00108000                __vectors_load_start__ = LOADADDR (.vectors)
                0x00108040                __vectors_load_end__ = (LOADADDR (.vectors) + SIZEOF (.vectors))

.init           0x00108040      0x280
 *ecrobot_init.o(*.text *.text.*)
 .text          0x00108040      0x280 build/ecrobot_init.o
                0x00108040                start
                0x001081ac                undef_handler
                0x001081b0                swi_handler
                0x001081b4                prefetch_abort_handler
                0x001081b8                data_abort_handler
                0x001081d4                reserved_handler
                0x001082c0                . = ALIGN (0x10)

.ram_text       0x00200040     0x2f20 load address 0x001082c0
                0x00200040                . = ALIGN (0x10)
 *.oram(*.text *.text.* *.glue*)
 .text.systick_isr_C1
                0x00200040       0x28 build/syslib/at91sam7s-gnu/lego_nxt/hw_sys_timer.oram
                0x00200040                systick_isr_C1
 *fill*         0x00200068        0x8 00
 .text          0x00200070      0x230 build/config/at91sam7s-gnu/cpu_support.oram
                0x00200070                dispatch
                0x002000b0                activate_r
                0x002000e0                exit_and_dispatch
                0x002000f0                start_dispatch
                0x002001ac                _interrupt
                0x0020021c                int_return
                0x00200248                disable_int
                0x00200250                enable_int
                0x00200258                nop
 .text          0x002002a0      0x2c0 build/config/at91sam7s-gnu/irq.oram
                0x002002a0                default_isr
                0x002002a0                default_fiq
                0x002002a0                spurious_isr
                0x002002a4                systick_isr_entry
                0x002002ec                systick_low_priority_entry
                0x0020032c                udp_isr_entry
                0x0020036c                spi_isr_entry
                0x002003ac                twi_isr_entry
                0x002003ec                sound_isr_entry
                0x0020042c                uart_isr_entry_0
                0x0020046c                uart_isr_entry_1
                0x002004ac                nxt_motor_isr_entry
                0x002004ec                i2c_timer_isr_entry
 .text.uart_process_isr
                0x00200560       0x74 ../../ecrobot/../ecrobot/libecrobot.a(uart.oram)
 .text.uart_isr_C_0
                0x002005d4        0xe ../../ecrobot/../ecrobot/libecrobot.a(uart.oram)
                0x002005d4                uart_isr_C_0
 .text.uart_isr_C_1
                0x002005e2        0xe ../../ecrobot/../ecrobot/libecrobot.a(uart.oram)
                0x002005e2                uart_isr_C_1
 .text.systick_low_priority_C
                0x002005f0       0x1c ../../ecrobot/../ecrobot/libecrobot.a(systick.oram)
                0x002005f0                systick_low_priority_C
 .text.systick_isr_C
                0x0020060c       0x24 ../../ecrobot/../ecrobot/libecrobot.a(systick.oram)
                0x0020060c                systick_isr_C
 .text.systick_get_ms
                0x00200630        0xc ../../ecrobot/../ecrobot/libecrobot.a(systick.oram)
                0x00200630                systick_get_ms
 .text.systick_wait_ms
                0x0020063c       0x1c ../../ecrobot/../ecrobot/libecrobot.a(systick.oram)
                0x0020063c                systick_wait_ms
 .text.systick_wait_ns
                0x00200658       0x1c ../../ecrobot/../ecrobot/libecrobot.a(systick.oram)
                0x00200658                systick_wait_ns
 .text.systick_init
                0x00200674       0x58 ../../ecrobot/../ecrobot/libecrobot.a(systick.oram)
                0x00200674                systick_init
 .text.systick_suspend
                0x002006cc        0xe ../../ecrobot/../ecrobot/libecrobot.a(systick.oram)
                0x002006cc                systick_suspend
 .text.systick_resume
                0x002006da        0xe ../../ecrobot/../ecrobot/libecrobot.a(systick.oram)
                0x002006da                systick_resume
 .text.byte_fifo_put
                0x002006e8       0x4a ../../ecrobot/../ecrobot/libecrobot.a(byte_fifo.oram)
                0x002006e8                byte_fifo_put
 .text.byte_fifo_get
                0x00200732       0x2c ../../ecrobot/../ecrobot/libecrobot.a(byte_fifo.oram)
                0x00200732                byte_fifo_get
 *fill*         0x0020075e        0x2 00
 .text.aic_initialise
                0x00200760       0x5c ../../ecrobot/../ecrobot/libecrobot.a(aic.oram)
                0x00200760                aic_initialise
 .text.aic_set_vector
                0x002007bc       0x30 ../../ecrobot/../ecrobot/libecrobot.a(aic.oram)
                0x002007bc                aic_set_vector
 .text.aic_mask_on
                0x002007ec       0x24 ../../ecrobot/../ecrobot/libecrobot.a(aic.oram)
                0x002007ec                aic_mask_on
 .text.aic_mask_off
                0x00200810       0x24 ../../ecrobot/../ecrobot/libecrobot.a(aic.oram)
                0x00200810                aic_mask_off
 .text.aic_clear
                0x00200834       0x24 ../../ecrobot/../ecrobot/libecrobot.a(aic.oram)
                0x00200834                aic_clear
 .text.reset    0x00200858       0x4c ../../ecrobot/../ecrobot/libecrobot.a(udp.oram)
 .text.udp_send_null
                0x002008a4       0x2c ../../ecrobot/../ecrobot/libecrobot.a(udp.oram)
 .text.udp_send_stall
                0x002008d0       0x2c ../../ecrobot/../ecrobot/libecrobot.a(udp.oram)
 .text.udp_send_control
                0x002008fc       0x54 ../../ecrobot/../ecrobot/libecrobot.a(udp.oram)
 .text.udp_isr_C
                0x00200950      0x72c ../../ecrobot/../ecrobot/libecrobot.a(udp.oram)
                0x00200950                udp_isr_C
 .text.twi_status
                0x0020107c       0x1c ../../ecrobot/../ecrobot/libecrobot.a(twi.oram)
                0x0020107c                twi_status
 .text.twi_isr_C
                0x00201098       0xbc ../../ecrobot/../ecrobot/libecrobot.a(twi.oram)
                0x00201098                twi_isr_C
 .text.twi_reset
                0x00201154       0xc4 ../../ecrobot/../ecrobot/libecrobot.a(twi.oram)
                0x00201154                twi_reset
 .text.twi_init
                0x00201218       0x4c ../../ecrobot/../ecrobot/libecrobot.a(twi.oram)
                0x00201218                twi_init
 .text.twi_start_read
                0x00201264       0x5c ../../ecrobot/../ecrobot/libecrobot.a(twi.oram)
                0x00201264                twi_start_read
 .text.twi_start_write
                0x002012c0       0x5c ../../ecrobot/../ecrobot/libecrobot.a(twi.oram)
                0x002012c0                twi_start_write
 .text.spi_set_mode
                0x0020131c       0x3c ../../ecrobot/../ecrobot/libecrobot.a(nxt_spi.oram)
 .text.spi_isr_C
                0x00201358       0x6c ../../ecrobot/../ecrobot/libecrobot.a(nxt_spi.oram)
                0x00201358                spi_isr_C
 .text.nxt_spi_init
                0x002013c4      0x140 ../../ecrobot/../ecrobot/libecrobot.a(nxt_spi.oram)
                0x002013c4                nxt_spi_init
 .text.nxt_spi_write
                0x00201504       0x40 ../../ecrobot/../ecrobot/libecrobot.a(nxt_spi.oram)
                0x00201504                nxt_spi_write
 .text.nxt_spi_set_display
                0x00201544       0x14 ../../ecrobot/../ecrobot/libecrobot.a(nxt_spi.oram)
                0x00201544                nxt_spi_set_display
 .text.nxt_spi_refresh
                0x00201558       0x28 ../../ecrobot/../ecrobot/libecrobot.a(nxt_spi.oram)
                0x00201558                nxt_spi_refresh
 .text.nxt_motor_set_count
                0x00201580       0x14 ../../ecrobot/../ecrobot/libecrobot.a(nxt_motors.oram)
                0x00201580                nxt_motor_set_count
 .text.nxt_motor_1kHz_process
                0x00201594       0x2c ../../ecrobot/../ecrobot/libecrobot.a(nxt_motors.oram)
                0x00201594                nxt_motor_1kHz_process
 .text.nxt_motor_quad_decode
                0x002015c0       0x48 ../../ecrobot/../ecrobot/libecrobot.a(nxt_motors.oram)
                0x002015c0                nxt_motor_quad_decode
 .text.nxt_motor_isr_C
                0x00201608       0x84 ../../ecrobot/../ecrobot/libecrobot.a(nxt_motors.oram)
                0x00201608                nxt_motor_isr_C
 .text.nxt_motor_init
                0x0020168c       0x78 ../../ecrobot/../ecrobot/libecrobot.a(nxt_motors.oram)
                0x0020168c                nxt_motor_init
 .text.data_abort_C
                0x00201704       0x7c ../../ecrobot/../ecrobot/libecrobot.a(data_abort.oram)
                0x00201704                data_abort_C
 .text.display_update
                0x00201780       0x18 ../../ecrobot/../ecrobot/libecrobot.a(display.oram)
                0x00201780                display_update
 .text.display_force_update
                0x00201798        0xc ../../ecrobot/../ecrobot/libecrobot.a(display.oram)
                0x00201798                display_force_update
 .text.display_clear
                0x002017a4       0x24 ../../ecrobot/../ecrobot/libecrobot.a(display.oram)
                0x002017a4                display_clear
 .text.display_goto_xy
                0x002017c8       0x14 ../../ecrobot/../ecrobot/libecrobot.a(display.oram)
                0x002017c8                display_goto_xy
 .text.display_char
                0x002017dc       0x58 ../../ecrobot/../ecrobot/libecrobot.a(display.oram)
                0x002017dc                display_char
 .text.display_string
                0x00201834       0x40 ../../ecrobot/../ecrobot/libecrobot.a(display.oram)
                0x00201834                display_string
 .text.display_unsigned_worker
                0x00201874       0x72 ../../ecrobot/../ecrobot/libecrobot.a(display.oram)
 *fill*         0x002018e6        0x2 00
 .text.display_hex
                0x002018e8       0x4c ../../ecrobot/../ecrobot/libecrobot.a(display.oram)
                0x002018e8                display_hex
 .text.display_unsigned
                0x00201934        0xe ../../ecrobot/../ecrobot/libecrobot.a(display.oram)
                0x00201934                display_unsigned
 .text.display_int
                0x00201942       0x16 ../../ecrobot/../ecrobot/libecrobot.a(display.oram)
                0x00201942                display_int
 .text.display_bitmap_copy
                0x00201958       0x50 ../../ecrobot/../ecrobot/libecrobot.a(display.oram)
                0x00201958                display_bitmap_copy
 .text.display_init
                0x002019a8       0x48 ../../ecrobot/../ecrobot/libecrobot.a(display.oram)
                0x002019a8                display_init
 .text.i2c_timer_isr_C
                0x002019f0      0x2f0 ../../ecrobot/../ecrobot/libecrobot.a(i2c.oram)
                0x002019f0                i2c_timer_isr_C
 .text.i2c_disable
                0x00201ce0       0x24 ../../ecrobot/../ecrobot/libecrobot.a(i2c.oram)
                0x00201ce0                i2c_disable
 .text.i2c_enable
                0x00201d04       0x50 ../../ecrobot/../ecrobot/libecrobot.a(i2c.oram)
                0x00201d04                i2c_enable
 .text.i2c_init
                0x00201d54       0xb0 ../../ecrobot/../ecrobot/libecrobot.a(i2c.oram)
                0x00201d54                i2c_init
 .text.i2c_busy
                0x00201e04       0x28 ../../ecrobot/../ecrobot/libecrobot.a(i2c.oram)
                0x00201e04                i2c_busy
 .text.i2c_start_transaction
                0x00201e2c       0xe8 ../../ecrobot/../ecrobot/libecrobot.a(i2c.oram)
                0x00201e2c                i2c_start_transaction
 .text.sound_interrupt_enable
                0x00201f14       0x1c ../../ecrobot/../ecrobot/libecrobot.a(sound.oram)
                0x00201f14                sound_interrupt_enable
 .text.sound_interrupt_disable
                0x00201f30       0x14 ../../ecrobot/../ecrobot/libecrobot.a(sound.oram)
                0x00201f30                sound_interrupt_disable
 .text.sound_enable
                0x00201f44       0x10 ../../ecrobot/../ecrobot/libecrobot.a(sound.oram)
                0x00201f44                sound_enable
 .text.sound_disable
                0x00201f54       0x10 ../../ecrobot/../ecrobot/libecrobot.a(sound.oram)
                0x00201f54                sound_disable
 .text.sound_init
                0x00201f64       0xac ../../ecrobot/../ecrobot/libecrobot.a(sound.oram)
                0x00201f64                sound_init
 .text.sound_fill_sample_buffer
                0x00202010       0xc8 ../../ecrobot/../ecrobot/libecrobot.a(sound.oram)
                0x00202010                sound_fill_sample_buffer
 .text.sound_isr_C
                0x002020d8       0xf8 ../../ecrobot/../ecrobot/libecrobot.a(sound.oram)
                0x002020d8                sound_isr_C
 .text.bt_init  0x002021d0      0x1d4 ../../ecrobot/../ecrobot/libecrobot.a(bt.oram)
                0x002021d0                bt_init
 .text.nxt_avr_power_down
                0x002023a4       0x10 ../../ecrobot/../ecrobot/libecrobot.a(nxt_avr.oram)
                0x002023a4                nxt_avr_power_down
 .text.nxt_avr_link_init
                0x002023b4       0x20 ../../ecrobot/../ecrobot/libecrobot.a(nxt_avr.oram)
                0x002023b4                nxt_avr_link_init
 .text.nxt_avr_init
                0x002023d4       0x68 ../../ecrobot/../ecrobot/libecrobot.a(nxt_avr.oram)
                0x002023d4                nxt_avr_init
 .text.nxt_avr_1kHz_update
                0x0020243c      0x1b0 ../../ecrobot/../ecrobot/libecrobot.a(nxt_avr.oram)
                0x0020243c                nxt_avr_1kHz_update
 .text.buttons_get
                0x002025ec        0xc ../../ecrobot/../ecrobot/libecrobot.a(nxt_avr.oram)
                0x002025ec                buttons_get
 .text.battery_voltage
                0x002025f8       0x20 ../../ecrobot/../ecrobot/libecrobot.a(nxt_avr.oram)
                0x002025f8                battery_voltage
 .text.nxt_avr_set_input_power
                0x00202618       0x3c ../../ecrobot/../ecrobot/libecrobot.a(nxt_avr.oram)
                0x00202618                nxt_avr_set_input_power
 .text.unset_digi0
                0x00202654       0x48 ../../ecrobot/../ecrobot/libecrobot.a(sensors.oram)
                0x00202654                unset_digi0
 .text.unset_digi1
                0x0020269c       0x48 ../../ecrobot/../ecrobot/libecrobot.a(sensors.oram)
                0x0020269c                unset_digi1
 .text.init_sensors
                0x002026e4       0x58 ../../ecrobot/../ecrobot/libecrobot.a(sensors.oram)
                0x002026e4                init_sensors
 .text.nxt_lcd_command
                0x0020273c       0x16 ../../ecrobot/../ecrobot/libecrobot.a(nxt_lcd.oram)
                0x0020273c                nxt_lcd_command
 .text.nxt_lcd_set_col
                0x00202752       0x1e ../../ecrobot/../ecrobot/libecrobot.a(nxt_lcd.oram)
                0x00202752                nxt_lcd_set_col
 .text.nxt_lcd_set_multiplex_rate
                0x00202770       0x14 ../../ecrobot/../ecrobot/libecrobot.a(nxt_lcd.oram)
                0x00202770                nxt_lcd_set_multiplex_rate
 .text.nxt_lcd_set_page_address
                0x00202784       0x14 ../../ecrobot/../ecrobot/libecrobot.a(nxt_lcd.oram)
                0x00202784                nxt_lcd_set_page_address
 .text.nxt_lcd_set_pot
                0x00202798       0x18 ../../ecrobot/../ecrobot/libecrobot.a(nxt_lcd.oram)
                0x00202798                nxt_lcd_set_pot
 .text.nxt_lcd_set_ram_address_control
                0x002027b0       0x14 ../../ecrobot/../ecrobot/libecrobot.a(nxt_lcd.oram)
                0x002027b0                nxt_lcd_set_ram_address_control
 .text.nxt_lcd_enable
                0x002027c4       0x14 ../../ecrobot/../ecrobot/libecrobot.a(nxt_lcd.oram)
                0x002027c4                nxt_lcd_enable
 .text.nxt_lcd_set_map_control
                0x002027d8       0x16 ../../ecrobot/../ecrobot/libecrobot.a(nxt_lcd.oram)
                0x002027d8                nxt_lcd_set_map_control
 .text.nxt_lcd_reset
                0x002027ee        0xe ../../ecrobot/../ecrobot/libecrobot.a(nxt_lcd.oram)
                0x002027ee                nxt_lcd_reset
 .text.nxt_lcd_set_bias_ratio
                0x002027fc       0x14 ../../ecrobot/../ecrobot/libecrobot.a(nxt_lcd.oram)
                0x002027fc                nxt_lcd_set_bias_ratio
 .text.nxt_lcd_force_update
                0x00202810       0x30 ../../ecrobot/../ecrobot/libecrobot.a(nxt_lcd.oram)
                0x00202810                nxt_lcd_force_update
 .text.nxt_lcd_update
                0x00202840        0xc ../../ecrobot/../ecrobot/libecrobot.a(nxt_lcd.oram)
                0x00202840                nxt_lcd_update
 .text.nxt_lcd_power_up
                0x0020284c       0x48 ../../ecrobot/../ecrobot/libecrobot.a(nxt_lcd.oram)
                0x0020284c                nxt_lcd_power_up
 .text.nxt_lcd_power_down
                0x00202894        0xc ../../ecrobot/../ecrobot/libecrobot.a(nxt_lcd.oram)
                0x00202894                nxt_lcd_power_down
 .text.nxt_lcd_init
                0x002028a0       0x18 ../../ecrobot/../ecrobot/libecrobot.a(nxt_lcd.oram)
                0x002028a0                nxt_lcd_init
 .text.verify_flash_page
                0x002028b8       0x2e ../../ecrobot/../ecrobot/libecrobot.a(flash_loader.oram)
 *fill*         0x002028e6        0x2 00
 .text.set_flash_request
                0x002028e8       0x38 ../../ecrobot/../ecrobot/libecrobot.a(flash_loader.oram)
                0x002028e8                set_flash_request
 .text.nxt_device_init
                0x00202920       0x38 ../../ecrobot/../ecrobot/libecrobot.a(flash_loader.oram)
                0x00202920                nxt_device_init
 .text          0x00202958       0x68 ../../ecrobot/../ecrobot/libecrobot.a(interrupts.oram)
                0x00202958                interrupts_get_and_disable
                0x0020297c                interrupts_enable
                0x0020298c                fiq_get_and_disable
                0x002029b0                fiq_enable
 .text.get_ms   0x002029c0        0xc ../../ecrobot/../ecrobot/libecrobot.a(flashprog.oram)
 .text.flash_write_page
                0x002029cc       0xbc ../../ecrobot/../ecrobot/libecrobot.a(flashprog.oram)
                0x002029cc                flash_write_page
 .text.flash_write_page.stub
                0x00202a88       0x28 linker stubs
                0x00202ab0                . = ALIGN (0x10)
 *fill*         0x00202ab8        0x8 00
 *.oram(*.rodata *.rodata.*)
 .rodata.dd     0x00202ac0       0x12 ../../ecrobot/../ecrobot/libecrobot.a(udp.oram)
 .rodata.ld     0x00202ad2        0x4 ../../ecrobot/../ecrobot/libecrobot.a(udp.oram)
 .rodata.cfd    0x00202ad6       0x20 ../../ecrobot/../ecrobot/libecrobot.a(udp.oram)
 .rodata.str1.1
                0x00202af6       0x1d ../../ecrobot/../ecrobot/libecrobot.a(data_abort.oram)
 .rodata.str1.1
                0x00202b13       0x67 ../../ecrobot/../ecrobot/libecrobot.a(display.oram)
 .rodata.font   0x00202b7a      0x280 ../../ecrobot/../ecrobot/libecrobot.a(display.oram)
 *fill*         0x00202dfa        0x2 00
 .rodata.i2c_pin
                0x00202dfc       0x20 ../../ecrobot/../ecrobot/libecrobot.a(i2c.oram)
 .rodata        0x00202e1c        0x9 ../../ecrobot/../ecrobot/libecrobot.a(sound.oram)
 *fill*         0x00202e25        0x3 00
 .rodata.sample_pattern
                0x00202e28       0x84 ../../ecrobot/../ecrobot/libecrobot.a(sound.oram)
                0x00202e28                sample_pattern
 .rodata.silence
                0x00202eac       0x40 ../../ecrobot/../ecrobot/libecrobot.a(sound.oram)
                0x00202eac                silence
 .rodata.avr_brainwash_string
                0x00202eec       0x30 ../../ecrobot/../ecrobot/libecrobot.a(nxt_avr.oram)
                0x00202eec                avr_brainwash_string
 .rodata        0x00202f1c       0x20 ../../ecrobot/../ecrobot/libecrobot.a(sensors.oram)
 .rodata.str1.1
                0x00202f3c       0x21 ../../ecrobot/../ecrobot/libecrobot.a(flash_loader.oram)
                0x00202f60                . = ALIGN (0x10)
 *fill*         0x00202f5d        0x3 00
                0x00200040                __ramtext_ram_start__ = ADDR (.ram_text)
                0x00202f60                __ramtext_ram_end__ = (ADDR (.ram_text) + SIZEOF (.ram_text))
                0x001082c0                __ramtext_load_start__ = LOADADDR (.ram_text)
                0x0010b1e0                __ramtext_load_end__ = (__ramtext_load_start__ + SIZEOF (.ram_text))

.wav_data       0x0010b1e0        0x0
 *.owav(*.data *.data.*)
                0x0010b1e0                . = ALIGN (0x10)

.bmp_data       0x0010b1e0      0x440
 *.obmp(*.data *.data.*)
 .data          0x0010b1e0      0x43e ../../ecrobot/../ecrobot/libecrobot.a(nxtosek_splash.obmp)
                0x0010b1e0                nxtosek_splash_bmp_start
                0x0010b61e                nxtosek_splash_bmp_end
                0x0010b620                . = ALIGN (0x10)
 *fill*         0x0010b61e        0x2 00

.spr_data       0x0010b620        0x0
 *.ospr(*.data *.data.*)
                0x0010b620                . = ALIGN (0x10)

.data           0x00202f60      0x480 load address 0x0010b620
 *(*.data *.data.*)
 .data.deviceStatus
                0x00202f60        0x1 ../../ecrobot/../ecrobot/libecrobot.a(ecrobot_interface.o)
 .data.named    0x00202f61       0x22 ../../ecrobot/../ecrobot/libecrobot.a(udp.oram)
 .data.snd      0x00202f83       0x1a ../../ecrobot/../ecrobot/libecrobot.a(udp.oram)
 *fill*         0x00202f9d        0x3 00
 .data.configured
                0x00202fa0        0x4 ../../ecrobot/../ecrobot/libecrobot.a(udp.oram)
 .bss.data      0x00202fa4        0x4 ../../ecrobot/../ecrobot/libecrobot.a(nxt_spi.oram)
                0x00202fa4                data
 .data.mode     0x00202fa8        0x1 ../../ecrobot/../ecrobot/libecrobot.a(nxt_spi.oram)
                0x00202fa8                mode
 *fill*         0x00202fa9        0x3 00
 .data.display_auto_update
                0x00202fac        0x4 ../../ecrobot/../ecrobot/libecrobot.a(display.oram)
                0x00202fac                display_auto_update
 .data          0x00202fb0      0x430 /home/adrian/CodeSourcery/Sourcery_CodeBench_Lite_for_ARM_EABI/bin/../lib/gcc/arm-none-eabi/4.6.3/../../../../arm-none-eabi/lib/thumb/libc.a(lib_a-impure.o)
                0x00202fb0                _impure_ptr
                0x002033e0                . = ALIGN (0x10)
                0x00202f60                __data_ram_start__ = ADDR (.data)
                0x002033e0                __data_ram_end__ = (ADDR (.data) + SIZEOF (.data))
                0x0010b620                __data_load_start__ = LOADADDR (.data)
                0x0010baa0                __data_load_end__ = (__data_load_start__ + SIZEOF (.data))

.igot.plt       0x002033e0        0x0 load address 0x0010baa0
 .igot.plt      0x00000000        0x0 build/kernel/alarm.o

.text           0x0010baa0     0x15e0
                0x0010baa0                . = ALIGN (0x10)
 *(*.text *.text.* *.glue*)
 .glue_7        0x00000000        0x0 linker stubs
 .glue_7t       0x00000000        0x0 linker stubs
 .text.enqueue_alarm
                0x0010baa0       0x80 build/kernel/alarm.o
 .text.alarm_initialize
                0x0010bb20       0x94 build/kernel/alarm.o
                0x0010bb20                alarm_initialize
 .text.SignalCounter
                0x0010bbb4      0x120 build/kernel/alarm.o
                0x0010bbb4                SignalCounter
 .text.call_posttaskhook
                0x0010bcd4       0x24 build/kernel/osctl.o
                0x0010bcd4                call_posttaskhook
 .text.call_pretaskhook
                0x0010bcf8       0x24 build/kernel/osctl.o
                0x0010bcf8                call_pretaskhook
 .text.StartOS  0x0010bd1c       0x54 build/kernel/osctl.o
                0x0010bd1c                StartOS
 .text.ShutdownOS
                0x0010bd70       0x48 build/kernel/osctl.o
                0x0010bd70                ShutdownOS
 .text.call_errorhook
                0x0010bdb8       0x6c build/kernel/osctl.o
                0x0010bdb8                call_errorhook
 .text.make_runnable
                0x0010be24       0x98 build/kernel/task.o
                0x0010be24                make_runnable
 .text.make_active
                0x0010bebc       0x74 build/kernel/task.o
                0x0010bebc                make_active
 .text.task_initialize
                0x0010bf30       0x80 build/kernel/task.o
                0x0010bf30                task_initialize
 .text.search_schedtsk
                0x0010bfb0       0x80 build/kernel/task.o
                0x0010bfb0                search_schedtsk
 .text.ActivateTask
                0x0010c030       0x88 build/kernel/task_manage.o
                0x0010c030                ActivateTask
 .text.TerminateTask
                0x0010c0b8       0x70 build/kernel/task_manage.o
                0x0010c0b8                TerminateTask
 .text.cpu_initialize
                0x0010c128        0x2 build/config/at91sam7s-gnu/cpu_config.o
                0x0010c128                cpu_initialize
 .text.cpu_terminate
                0x0010c12a        0x2 build/config/at91sam7s-gnu/cpu_config.o
                0x0010c12a                cpu_terminate
 .text.sys_initialize
                0x0010c12c        0x2 build/config/at91sam7s-gnu/lego_nxt/sys_config.o
                0x0010c12c                sys_initialize
 .text.sys_exit
                0x0010c12e        0x2 build/config/at91sam7s-gnu/lego_nxt/sys_config.o
                0x0010c12e                sys_exit
 .text._activate_alarm_cyclic_alarm
                0x0010c130        0xe build/./kernel_cfg.o
 .text.object_initialize
                0x0010c13e       0x10 build/./kernel_cfg.o
                0x0010c13e                object_initialize
 *fill*         0x0010c14e        0x2 00
 .text.init_OS_flag
                0x0010c150        0xc build/ecrobot_base.o
                0x0010c150                init_OS_flag
 .text.set_OS_flag
                0x0010c15c        0xc build/ecrobot_base.o
                0x0010c15c                set_OS_flag
 .text.get_OS_flag
                0x0010c168        0xc build/ecrobot_base.o
                0x0010c168                get_OS_flag
 .text.cpp_constructor
                0x0010c174       0x28 build/ecrobot_base.o
                0x0010c174                cpp_constructor
 .text.cpp_destructor
                0x0010c19c        0xe build/ecrobot_base.o
                0x0010c19c                cpp_destructor
 *fill*         0x0010c1aa        0x2 00
 .text.execution_mode
                0x0010c1ac       0x14 build/ecrobot_base.o
                0x0010c1ac                execution_mode
 .text.show_splash_screen
                0x0010c1c0       0x8c build/ecrobot_base.o
                0x0010c1c0                show_splash_screen
 .text.show_main_screen
                0x0010c24c       0x48 build/ecrobot_base.o
                0x0010c24c                show_main_screen
 .text.display_status_bar
                0x0010c294       0x5c build/ecrobot_base.o
                0x0010c294                display_status_bar
 .text.add_status_info
                0x0010c2f0       0x64 build/ecrobot_base.o
                0x0010c2f0                add_status_info
 .text.restart_NXT
                0x0010c354       0x2e build/ecrobot_base.o
                0x0010c354                restart_NXT
 .text.shutdown_NXT
                0x0010c382       0x2e build/ecrobot_base.o
                0x0010c382                shutdown_NXT
 .text.check_NXT_buttons
                0x0010c3b0       0x3c build/ecrobot_base.o
                0x0010c3b0                check_NXT_buttons
 .text.startup.main
                0x0010c3ec      0x108 build/ecrobot.o
                0x0010c3ec                main
 .text.ecrobot_device_initialize
                0x0010c4f4        0xe build/tetrix.o
                0x0010c4f4                ecrobot_device_initialize
 .text.ecrobot_device_terminate
                0x0010c502        0xe build/tetrix.o
                0x0010c502                ecrobot_device_terminate
 .text.user_1ms_isr_type2
                0x0010c510       0x1c build/tetrix.o
                0x0010c510                user_1ms_isr_type2
 .text.TaskMainTask1
                0x0010c52c      0x11c build/tetrix.o
                0x0010c52c                TaskMainTask1
 .text.ecrobot_init_tetrix
                0x0010c648        0xe ../../ecrobot/../ecrobot/libecrobot.a(ecrobot_HiTechnic.o)
                0x0010c648                ecrobot_init_tetrix
 *fill*         0x0010c656        0x2 00
 .text.ecrobot_tetrix_motors
                0x0010c658       0x30 ../../ecrobot/../ecrobot/libecrobot.a(ecrobot_HiTechnic.o)
                0x0010c658                ecrobot_tetrix_motors
 .text.ecrobot_tetrix_servos
                0x0010c688       0x5c ../../ecrobot/../ecrobot/libecrobot.a(ecrobot_HiTechnic.o)
                0x0010c688                ecrobot_tetrix_servos
 .text.ecrobot_tetrix_battery
                0x0010c6e4       0x2c ../../ecrobot/../ecrobot/libecrobot.a(ecrobot_HiTechnic.o)
                0x0010c6e4                ecrobot_tetrix_battery
 .text.ecrobot_term_tetrix
                0x0010c710        0xc ../../ecrobot/../ecrobot/libecrobot.a(ecrobot_HiTechnic.o)
                0x0010c710                ecrobot_term_tetrix
 .text.ecrobot_init_i2c
                0x0010c71c       0x24 ../../ecrobot/../ecrobot/libecrobot.a(ecrobot_interface.o)
                0x0010c71c                ecrobot_init_i2c
 .text.ecrobot_wait_i2c_ready
                0x0010c740       0x30 ../../ecrobot/../ecrobot/libecrobot.a(ecrobot_interface.o)
                0x0010c740                ecrobot_wait_i2c_ready
 .text.ecrobot_send_i2c
                0x0010c770       0x32 ../../ecrobot/../ecrobot/libecrobot.a(ecrobot_interface.o)
                0x0010c770                ecrobot_send_i2c
 .text.ecrobot_read_i2c
                0x0010c7a2       0x34 ../../ecrobot/../ecrobot/libecrobot.a(ecrobot_interface.o)
                0x0010c7a2                ecrobot_read_i2c
 .text.ecrobot_term_i2c
                0x0010c7d6        0xc ../../ecrobot/../ecrobot/libecrobot.a(ecrobot_interface.o)
                0x0010c7d6                ecrobot_term_i2c
 *fill*         0x0010c7e2        0x2 00
 .text.ecrobot_get_battery_voltage
                0x0010c7e4        0xc ../../ecrobot/../ecrobot/libecrobot.a(ecrobot_interface.o)
                0x0010c7e4                ecrobot_get_battery_voltage
 .text.ecrobot_init_nxtstate
                0x0010c7f0       0x28 ../../ecrobot/../ecrobot/libecrobot.a(ecrobot_interface.o)
                0x0010c7f0                ecrobot_init_nxtstate
 .text.ecrobot_get_button_state
                0x0010c818        0xc ../../ecrobot/../ecrobot/libecrobot.a(ecrobot_interface.o)
                0x0010c818                ecrobot_get_button_state
 .text.ecrobot_poll_nxtstate
                0x0010c824       0x60 ../../ecrobot/../ecrobot/libecrobot.a(ecrobot_interface.o)
                0x0010c824                ecrobot_poll_nxtstate
 .text.ecrobot_setDeviceInitialized
                0x0010c884       0x18 ../../ecrobot/../ecrobot/libecrobot.a(ecrobot_interface.o)
                0x0010c884                ecrobot_setDeviceInitialized
 .text.ecrobot_initDeviceStatus
                0x0010c89c        0xc ../../ecrobot/../ecrobot/libecrobot.a(ecrobot_interface.o)
                0x0010c89c                ecrobot_initDeviceStatus
 .text.ecrobot_bmp2lcd
                0x0010c8a8      0x1a8 ../../ecrobot/../ecrobot/libecrobot.a(ecrobot_interface.o)
                0x0010c8a8                ecrobot_bmp2lcd
 .text.StartupHook
                0x0010ca50        0x2 ../../ecrobot/../ecrobot/libecrobot.a(osek_hook.o)
                0x0010ca50                StartupHook
 .text.PreTaskHook
                0x0010ca52        0x2 ../../ecrobot/../ecrobot/libecrobot.a(osek_hook.o)
                0x0010ca52                PreTaskHook
 .text.PostTaskHook
                0x0010ca54        0x2 ../../ecrobot/../ecrobot/libecrobot.a(osek_hook.o)
                0x0010ca54                PostTaskHook
 .text.ErrorHook
                0x0010ca56        0x2 ../../ecrobot/../ecrobot/libecrobot.a(osek_hook.o)
                0x0010ca56                ErrorHook
 .text.ShutdownHook
                0x0010ca58        0x2 ../../ecrobot/../ecrobot/libecrobot.a(osek_hook.o)
                0x0010ca58                ShutdownHook
 *fill*         0x0010ca5a        0x2 00
 .text          0x0010ca5c       0x14 /home/adrian/CodeSourcery/Sourcery_CodeBench_Lite_for_ARM_EABI/bin/../lib/gcc/arm-none-eabi/4.6.3/thumb/libgcc.a(_thumb1_case_uqi.o)
                0x0010ca5c                __gnu_thumb1_case_uqi
 .text          0x0010ca70       0x14 /home/adrian/CodeSourcery/Sourcery_CodeBench_Lite_for_ARM_EABI/bin/../lib/gcc/arm-none-eabi/4.6.3/thumb/libgcc.a(_thumb1_case_uhi.o)
                0x0010ca70                __gnu_thumb1_case_uhi
 .text          0x0010ca84      0x11c /home/adrian/CodeSourcery/Sourcery_CodeBench_Lite_for_ARM_EABI/bin/../lib/gcc/arm-none-eabi/4.6.3/thumb/libgcc.a(_udivsi3.o)
                0x0010ca84                __udivsi3
                0x0010ca84                __aeabi_uidiv
                0x0010cb80                __aeabi_uidivmod
 .text          0x0010cba0      0x150 /home/adrian/CodeSourcery/Sourcery_CodeBench_Lite_for_ARM_EABI/bin/../lib/gcc/arm-none-eabi/4.6.3/thumb/libgcc.a(_divsi3.o)
                0x0010cba0                __aeabi_idiv
                0x0010cba0                __divsi3
                0x0010ccd0                __aeabi_idivmod
 .text          0x0010ccf0        0x4 /home/adrian/CodeSourcery/Sourcery_CodeBench_Lite_for_ARM_EABI/bin/../lib/gcc/arm-none-eabi/4.6.3/thumb/libgcc.a(_dvmd_tls.o)
                0x0010ccf0                __aeabi_ldiv0
                0x0010ccf0                __aeabi_idiv0
 .text          0x0010ccf4       0x4c /home/adrian/CodeSourcery/Sourcery_CodeBench_Lite_for_ARM_EABI/bin/../lib/gcc/arm-none-eabi/4.6.3/thumb/libgcc.a(_muldi3.o)
                0x0010ccf4                __aeabi_lmul
                0x0010ccf4                __muldi3
 .text          0x0010cd40       0x10 /home/adrian/CodeSourcery/Sourcery_CodeBench_Lite_for_ARM_EABI/bin/../lib/gcc/arm-none-eabi/4.6.3/../../../../arm-none-eabi/lib/thumb/libc.a(lib_a-cxa_finalize.o)
                0x0010cd40                __cxa_finalize
 .text          0x0010cd50       0x90 /home/adrian/CodeSourcery/Sourcery_CodeBench_Lite_for_ARM_EABI/bin/../lib/gcc/arm-none-eabi/4.6.3/../../../../arm-none-eabi/lib/thumb/libc.a(lib_a-memset.o)
                0x0010cd50                memset
 .text          0x0010cde0       0x50 /home/adrian/CodeSourcery/Sourcery_CodeBench_Lite_for_ARM_EABI/bin/../lib/gcc/arm-none-eabi/4.6.3/../../../../arm-none-eabi/lib/thumb/libc.a(lib_a-rand.o)
                0x0010cde0                srand
                0x0010cdf0                rand
 .text          0x0010ce30       0x10 /home/adrian/CodeSourcery/Sourcery_CodeBench_Lite_for_ARM_EABI/bin/../lib/gcc/arm-none-eabi/4.6.3/../../../../arm-none-eabi/lib/thumb/libc.a(lib_a-strcpy.o)
                0x0010ce30                strcpy
 .text          0x0010ce40       0x10 /home/adrian/CodeSourcery/Sourcery_CodeBench_Lite_for_ARM_EABI/bin/../lib/gcc/arm-none-eabi/4.6.3/../../../../arm-none-eabi/lib/thumb/libc.a(lib_a-strlen.o)
                0x0010ce40                strlen
 .text          0x0010ce50      0x114 /home/adrian/CodeSourcery/Sourcery_CodeBench_Lite_for_ARM_EABI/bin/../lib/gcc/arm-none-eabi/4.6.3/../../../../arm-none-eabi/lib/thumb/libc.a(lib_a-__call_atexit.o)
                0x0010ce50                __call_exitprocs
 *fill*         0x0010cf64        0x4 00
 .text.stub     0x0010cf68       0x1c linker stubs
                0x0010cf90                . = ALIGN (0x10)
 *fill*         0x0010cf88        0x8 00
 *(*.rodata *.rodata.*)
 .rodata.search_table.3735
                0x0010cf90        0xf build/kernel/task.o
 *fill*         0x0010cf9f        0x1 00
 .rodata.alminib_almval
                0x0010cfa0        0x4 build/./kernel_cfg.o
                0x0010cfa0                alminib_almval
 .rodata.alminib_cntid
                0x0010cfa4        0x1 build/./kernel_cfg.o
                0x0010cfa4                alminib_cntid
 .rodata.tinib_maxact
                0x0010cfa5        0x1 build/./kernel_cfg.o
                0x0010cfa5                tinib_maxact
 *fill*         0x0010cfa6        0x2 00
 .rodata.cntinib_tickbase
                0x0010cfa8        0x4 build/./kernel_cfg.o
                0x0010cfa8                cntinib_tickbase
 .rodata.tnum_task
                0x0010cfac        0x1 build/./kernel_cfg.o
                0x0010cfac                tnum_task
 *fill*         0x0010cfad        0x3 00
 .rodata.cntinib_maxval
                0x0010cfb0        0x4 build/./kernel_cfg.o
                0x0010cfb0                cntinib_maxval
 .rodata.tinib_stksz
                0x0010cfb4        0x2 build/./kernel_cfg.o
                0x0010cfb4                tinib_stksz
 *fill*         0x0010cfb6        0x2 00
 .rodata.alminib_cycle
                0x0010cfb8        0x4 build/./kernel_cfg.o
                0x0010cfb8                alminib_cycle
 .rodata.tinib_inipri
                0x0010cfbc        0x1 build/./kernel_cfg.o
                0x0010cfbc                tinib_inipri
 *fill*         0x0010cfbd        0x3 00
 .rodata.cntinib_maxval2
                0x0010cfc0        0x4 build/./kernel_cfg.o
                0x0010cfc0                cntinib_maxval2
 .rodata.tinib_stk
                0x0010cfc4        0x4 build/./kernel_cfg.o
                0x0010cfc4                tinib_stk
 .rodata.tnum_exttask
                0x0010cfc8        0x1 build/./kernel_cfg.o
                0x0010cfc8                tnum_exttask
 .rodata.tnum_counter
                0x0010cfc9        0x1 build/./kernel_cfg.o
                0x0010cfc9                tnum_counter
 .rodata.tinib_exepri
                0x0010cfca        0x1 build/./kernel_cfg.o
                0x0010cfca                tinib_exepri
 .rodata.tinib_autoact
                0x0010cfcb        0x1 build/./kernel_cfg.o
                0x0010cfcb                tinib_autoact
 .rodata.SysTimerCnt
                0x0010cfcc        0x1 build/./kernel_cfg.o
                0x0010cfcc                SysTimerCnt
 .rodata.tnum_alarm
                0x0010cfcd        0x1 build/./kernel_cfg.o
                0x0010cfcd                tnum_alarm
 *fill*         0x0010cfce        0x2 00
 .rodata.alminib_cback
                0x0010cfd0        0x4 build/./kernel_cfg.o
                0x0010cfd0                alminib_cback
 .rodata.tinib_task
                0x0010cfd4        0x4 build/./kernel_cfg.o
                0x0010cfd4                tinib_task
 .rodata.alminib_autosta
                0x0010cfd8        0x1 build/./kernel_cfg.o
                0x0010cfd8                alminib_autosta
 .rodata.str1.1
                0x0010cfd9       0x6c build/ecrobot_base.o
 *fill*         0x0010d045        0x3 00
 .rodata.exec_addr
                0x0010d048        0x4 build/ecrobot_base.o
                0x0010d048                exec_addr
 .rodata.str1.1
                0x0010d04c       0x2a build/tetrix.o
 *fill*         0x0010d076        0x2 00
 .rodata        0x0010d078        0x4 /home/adrian/CodeSourcery/Sourcery_CodeBench_Lite_for_ARM_EABI/bin/../lib/gcc/arm-none-eabi/4.6.3/../../../../arm-none-eabi/lib/thumb/libc.a(lib_a-impure.o)
                0x0010d078                _global_impure_ptr
 .rodata.str1.4
                0x0010d07c        0x4 /home/adrian/CodeSourcery/Sourcery_CodeBench_Lite_for_ARM_EABI/bin/../lib/gcc/arm-none-eabi/4.6.3/../../../../arm-none-eabi/lib/thumb/libc.a(lib_a-impure.o)
                0x0010d080                . = ALIGN (0x10)
 *(*.gnu.linkonce.* .gcc_except_table)
                0x0010d080                . = ALIGN (0x10)

.vfp11_veneer   0x0010d080        0x0
 .vfp11_veneer  0x00000000        0x0 linker stubs

.v4_bx          0x0010d080        0x0
 .v4_bx         0x00000000        0x0 linker stubs

.iplt           0x0010d080        0x0
 .iplt          0x00000000        0x0 build/kernel/alarm.o

.rel.dyn        0x0010d080        0x0
 .rel.iplt      0x00000000        0x0 build/kernel/alarm.o

.tors           0x0010d080        0x0
                0x0010d080                . = ALIGN (0x10)
                0x0010d080                __ctor_begin = .
 *(*.ctors*)
                0x0010d080                __ctor_end = .
                0x0010d080                . = ALIGN (0x10)
                0x0010d080                __dtor_begin = .
 *(*.dtors*)
                0x0010d080                __dtor_end = .
                0x0010d080                . = ALIGN (0x10)
                0x0010d080                __rom_end__ = __dtor_end

.bss            0x002033e0     0x1020
 *(*.bss *.bss.*)
 .bss.ready_queue_first
                0x002033e0       0x10 build/kernel/task.o
 .bss.ready_primap
                0x002033f0        0x2 build/kernel/task.o
 .bss.ready_queue_last
                0x002033f2       0x10 build/kernel/task.o
 *fill*         0x00203402        0x2 00
 .bss._stack_Task1
                0x00203404      0x200 build/./kernel_cfg.o
 .bss.lcd.5466  0x00203604      0x320 build/ecrobot_base.o
 .bss.status_bar_position
                0x00203924        0x4 build/ecrobot_base.o
 .bss.last_act_time.5508
                0x00203928        0x4 build/ecrobot_base.o
 .bss.status_bar
                0x0020392c       0x10 build/ecrobot_base.o
 .bss.OS_flag   0x0020393c        0x4 build/ecrobot_base.o
 .bss.buf.5031  0x00203940        0x2 ../../ecrobot/../ecrobot/libecrobot.a(ecrobot_HiTechnic.o)
 .bss.buf.5013  0x00203942        0x4 ../../ecrobot/../ecrobot/libecrobot.a(ecrobot_HiTechnic.o)
 .bss.buf.5026  0x00203946        0x8 ../../ecrobot/../ecrobot/libecrobot.a(ecrobot_HiTechnic.o)
 *fill*         0x0020394e        0x2 00
 .bss.ecrobot_inputs
                0x00203950        0x8 ../../ecrobot/../ecrobot/libecrobot.a(ecrobot_interface.o)
 .bss.buttons_states
                0x00203958       0x14 ../../ecrobot/../ecrobot/libecrobot.a(ecrobot_interface.o)
 .bss.buttons_i
                0x0020396c        0x4 ../../ecrobot/../ecrobot/libecrobot.a(ecrobot_interface.o)
 .bss.systick_ms
                0x00203970        0x4 ../../ecrobot/../ecrobot/libecrobot.a(systick.oram)
 .bss.newAddress
                0x00203974        0x4 ../../ecrobot/../ecrobot/libecrobot.a(udp.oram)
 .bss.outCnt    0x00203978        0x4 ../../ecrobot/../ecrobot/libecrobot.a(udp.oram)
 .bss.currentConfig
                0x0020397c        0x1 ../../ecrobot/../ecrobot/libecrobot.a(udp.oram)
 *fill*         0x0020397d        0x3 00
 .bss.outPtr    0x00203980        0x4 ../../ecrobot/../ecrobot/libecrobot.a(udp.oram)
 .bss.currentFeatures
                0x00203984        0x4 ../../ecrobot/../ecrobot/libecrobot.a(udp.oram)
 .bss.delayedEnable
                0x00203988        0x1 ../../ecrobot/../ecrobot/libecrobot.a(udp.oram)
 *fill*         0x00203989        0x3 00
 .bss.currentRxBank
                0x0020398c        0x4 ../../ecrobot/../ecrobot/libecrobot.a(udp.oram)
 .bss.twi_state
                0x00203990        0x1 ../../ecrobot/../ecrobot/libecrobot.a(twi.oram)
 *fill*         0x00203991        0x3 00
 .bss.twi_ptr   0x00203994        0x4 ../../ecrobot/../ecrobot/libecrobot.a(twi.oram)
 .bss.twi_pending
                0x00203998        0x4 ../../ecrobot/../ecrobot/libecrobot.a(twi.oram)
 .bss.twi_mask  0x0020399c        0x4 ../../ecrobot/../ecrobot/libecrobot.a(twi.oram)
 .bss.dirty     0x002039a0        0x1 ../../ecrobot/../ecrobot/libecrobot.a(nxt_spi.oram)
                0x002039a0                dirty
 .bss.page      0x002039a1        0x1 ../../ecrobot/../ecrobot/libecrobot.a(nxt_spi.oram)
                0x002039a1                page
 *fill*         0x002039a2        0x2 00
 .bss.display   0x002039a4        0x4 ../../ecrobot/../ecrobot/libecrobot.a(nxt_spi.oram)
                0x002039a4                display
 .bss.motor     0x002039a8       0x30 ../../ecrobot/../ecrobot/libecrobot.a(nxt_motors.oram)
 .bss.nxt_motor_initialised
                0x002039d8        0x4 ../../ecrobot/../ecrobot/libecrobot.a(nxt_motors.oram)
 .bss.interrupts_this_period
                0x002039dc        0x4 ../../ecrobot/../ecrobot/libecrobot.a(nxt_motors.oram)
 .bss.display_array
                0x002039e0      0x388 ../../ecrobot/../ecrobot/libecrobot.a(display.oram)
 .bss.display_tick
                0x00203d68        0x4 ../../ecrobot/../ecrobot/libecrobot.a(display.oram)
                0x00203d68                display_tick
 .bss.i2c_port  0x00203d6c      0x170 ../../ecrobot/../ecrobot/libecrobot.a(i2c.oram)
 .bss.i2c_int_count
                0x00203edc        0x4 ../../ecrobot/../ecrobot/libecrobot.a(i2c.oram)
 .bss.sound_mode
                0x00203ee0        0x1 ../../ecrobot/../ecrobot/libecrobot.a(sound.oram)
                0x00203ee0                sound_mode
 .bss.in_buf    0x00203ee1      0x100 ../../ecrobot/../ecrobot/libecrobot.a(bt.oram)
 .bss.out_buf_ptr
                0x00203fe1        0x1 ../../ecrobot/../ecrobot/libecrobot.a(bt.oram)
 *fill*         0x00203fe2        0x2 00
 .bss.buf_ptr   0x00203fe4        0x4 ../../ecrobot/../ecrobot/libecrobot.a(bt.oram)
 .bss.in_buf_in_ptr
                0x00203fe8        0x1 ../../ecrobot/../ecrobot/libecrobot.a(bt.oram)
 *fill*         0x00203fe9        0x3 00
 .bss.in_buf_idx
                0x00203fec        0x4 ../../ecrobot/../ecrobot/libecrobot.a(bt.oram)
 .bss.update_count
                0x00203ff0        0x4 ../../ecrobot/../ecrobot/libecrobot.a(nxt_avr.oram)
 .bss.debounce_state
                0x00203ff4        0x2 ../../ecrobot/../ecrobot/libecrobot.a(nxt_avr.oram)
 .bss.button_state
                0x00203ff6        0x2 ../../ecrobot/../ecrobot/libecrobot.a(nxt_avr.oram)
 .bss.from_buf  0x00203ff8        0x4 ../../ecrobot/../ecrobot/libecrobot.a(nxt_avr.oram)
 .bss.io_from_avr
                0x00203ffc        0x4 ../../ecrobot/../ecrobot/libecrobot.a(nxt_avr.oram)
 .bss.data_from_avr
                0x00204000       0x1a ../../ecrobot/../ecrobot/libecrobot.a(nxt_avr.oram)
 .bss.debounce_cnt
                0x0020401a        0x2 ../../ecrobot/../ecrobot/libecrobot.a(nxt_avr.oram)
 .bss.nxt_avr_stats
                0x0020401c       0x14 ../../ecrobot/../ecrobot/libecrobot.a(nxt_avr.oram)
 .bss.link_state
                0x00204030        0x4 ../../ecrobot/../ecrobot/libecrobot.a(nxt_avr.oram)
 .bss.io_to_avr
                0x00204034        0x8 ../../ecrobot/../ecrobot/libecrobot.a(nxt_avr.oram)
 .bss.prev_buttons
                0x0020403c        0x2 ../../ecrobot/../ecrobot/libecrobot.a(nxt_avr.oram)
 .bss.data_to_avr
                0x0020403e        0x9 ../../ecrobot/../ecrobot/libecrobot.a(nxt_avr.oram)
 *fill*         0x00204047        0x1 00
 .bss.display   0x00204048        0x4 ../../ecrobot/../ecrobot/libecrobot.a(nxt_lcd.oram)
                0x00204050                . = ALIGN (0x10)
 *fill*         0x0020404c        0x4 00
                0x00204050                __bss_end__ = .
 COMMON         0x00204050        0x2 build/kernel/interrupt.o
                0x00204050                runisr
                0x00204051                sus_all_cnt
 *fill*         0x00204052        0x2 00
 COMMON         0x00204054       0x10 build/kernel/osctl.o
                0x00204054                callevel
                0x00204055                _errorhook_svcid
                0x00204056                appmode
                0x00204058                _errorhook_par1
                0x0020405c                _errorhook_par3
                0x00204060                _errorhook_par2
 COMMON         0x00204064        0x3 build/kernel/task.o
                0x00204064                runtsk
                0x00204065                schedtsk
                0x00204066                nextpri
 *fill*         0x00204067        0x1 00
 COMMON         0x00204068       0x2c build/./kernel_cfg.o
                0x00204068                tcb_waievt
                0x0020406c                rescb_prevpri
                0x0020406d                almcb_prev
                0x0020406e                tcb_lastres
                0x00204070                almcb_almval
                0x00204074                tcxb_pc
                0x00204078                tcb_next
                0x00204079                tcb_curpri
                0x0020407a                tcb_tstat
                0x0020407b                isrcb_lastres
                0x0020407c                cntcb_almque
                0x0020407d                rescb_prevres
                0x0020407e                tcb_actcnt
                0x00204080                tcb_curevt
                0x00204084                almcb_cycle
                0x00204088                tcxb_sp
                0x0020408c                almcb_next
                0x00204090                cntcb_curval
 COMMON         0x00204094       0x44 ../../ecrobot/../ecrobot/libecrobot.a(uart.oram)
                0x00204094                uart
 COMMON         0x002040d8        0x4 ../../ecrobot/../ecrobot/libecrobot.a(data_abort.oram)
                0x002040d8                data_abort_pc
 COMMON         0x002040dc        0x8 ../../ecrobot/../ecrobot/libecrobot.a(display.oram)
                0x002040dc                display_x
                0x002040e0                display_y
 COMMON         0x002040e4      0x31c ../../ecrobot/../ecrobot/libecrobot.a(sound.oram)
                0x002040e4                sample
                0x002033e0                __bss_start__ = ADDR (.bss)
                0x00204400                __bss_end__ = (ADDR (.bss) + SIZEOF (.bss))
                0x00204400                PROVIDE (end, .)

.heap_area      0x00204400     0xb778
                0x0020fb78                . = (. + (0x20fb78 - end))
 *fill*         0x00204400     0xb778 00

.stack          0x0020fb78      0x488
                0x0020fbf8                . = (. + 0x80)
 *fill*         0x0020fb78       0x80 00
                0x0020fc00                . = ALIGN (0x10)
 *fill*         0x0020fbf8        0x8 00
                0x0020fc00                __irq_stack__ = .
                0x0020fc00                __system_stack_bottom__ = .
                0x00210000                . = (. + 0x400)
 *fill*         0x0020fc00      0x400 00
                0x00210000                . = ALIGN (0x10)
                0x00210000                __system_stack__ = .
                0x00210000                __system_stack_top__ = .
                0x0020fb78                __stack_start__ = ADDR (.stack)
                0x00210000                __stack_end__ = (ADDR (.stack) + SIZEOF (.stack))
OUTPUT(tetrix_rom.elf elf32-littlearm)

.comment        0x00000000       0x30
 .comment       0x00000000       0x30 build/kernel/alarm.o
                                 0x31 (size before relaxing)
 .comment       0x00000000       0x31 build/kernel/interrupt.o
 .comment       0x00000000       0x31 build/kernel/osctl.o
 .comment       0x00000000       0x31 build/kernel/task.o
 .comment       0x00000000       0x31 build/kernel/task_manage.o
 .comment       0x00000000       0x31 build/config/at91sam7s-gnu/cpu_config.o
 .comment       0x00000000       0x31 build/config/at91sam7s-gnu/lego_nxt/sys_config.o
 .comment       0x00000000       0x31 build/./kernel_cfg.o
 .comment       0x00000000       0x31 build/ecrobot_base.o
 .comment       0x00000000       0x31 build/ecrobot.o
 .comment       0x00000000       0x31 build/tetrix.o
 .comment       0x00000000       0x31 build/syslib/at91sam7s-gnu/lego_nxt/hw_sys_timer.oram
 .comment       0x00000000       0x31 ../../ecrobot/../ecrobot/libecrobot.a(ecrobot_HiTechnic.o)
 .comment       0x00000000       0x31 ../../ecrobot/../ecrobot/libecrobot.a(ecrobot_interface.o)
 .comment       0x00000000       0x31 ../../ecrobot/../ecrobot/libecrobot.a(osek_hook.o)
 .comment       0x00000000       0x31 ../../ecrobot/../ecrobot/libecrobot.a(uart.oram)
 .comment       0x00000000       0x31 ../../ecrobot/../ecrobot/libecrobot.a(systick.oram)
 .comment       0x00000000       0x31 ../../ecrobot/../ecrobot/libecrobot.a(byte_fifo.oram)
 .comment       0x00000000       0x31 ../../ecrobot/../ecrobot/libecrobot.a(aic.oram)
 .comment       0x00000000       0x31 ../../ecrobot/../ecrobot/libecrobot.a(udp.oram)
 .comment       0x00000000       0x31 ../../ecrobot/../ecrobot/libecrobot.a(twi.oram)
 .comment       0x00000000       0x31 ../../ecrobot/../ecrobot/libecrobot.a(nxt_spi.oram)
 .comment       0x00000000       0x31 ../../ecrobot/../ecrobot/libecrobot.a(nxt_motors.oram)
 .comment       0x00000000       0x31 ../../ecrobot/../ecrobot/libecrobot.a(data_abort.oram)
 .comment       0x00000000       0x31 ../../ecrobot/../ecrobot/libecrobot.a(display.oram)
 .comment       0x00000000       0x31 ../../ecrobot/../ecrobot/libecrobot.a(i2c.oram)
 .comment       0x00000000       0x31 ../../ecrobot/../ecrobot/libecrobot.a(sound.oram)
 .comment       0x00000000       0x31 ../../ecrobot/../ecrobot/libecrobot.a(bt.oram)
 .comment       0x00000000       0x31 ../../ecrobot/../ecrobot/libecrobot.a(nxt_avr.oram)
 .comment       0x00000000       0x31 ../../ecrobot/../ecrobot/libecrobot.a(sensors.oram)
 .comment       0x00000000       0x31 ../../ecrobot/../ecrobot/libecrobot.a(nxt_lcd.oram)
 .comment       0x00000000       0x31 ../../ecrobot/../ecrobot/libecrobot.a(flash_loader.oram)
 .comment       0x00000000       0x31 ../../ecrobot/../ecrobot/libecrobot.a(flashprog.oram)

.ARM.attributes
                0x00000000       0x2e
 .ARM.attributes
                0x00000000       0x32 build/kernel/alarm.o
 .ARM.attributes
                0x00000032       0x32 build/kernel/interrupt.o
 .ARM.attributes
                0x00000064       0x32 build/kernel/osctl.o
 .ARM.attributes
                0x00000096       0x32 build/kernel/task.o
 .ARM.attributes
                0x000000c8       0x32 build/kernel/task_manage.o
 .ARM.attributes
                0x000000fa       0x32 build/config/at91sam7s-gnu/cpu_config.o
 .ARM.attributes
                0x0000012c       0x32 build/config/at91sam7s-gnu/lego_nxt/sys_config.o
 .ARM.attributes
                0x0000015e       0x32 build/./kernel_cfg.o
 .ARM.attributes
                0x00000190       0x32 build/ecrobot_base.o
 .ARM.attributes
                0x000001c2       0x32 build/ecrobot.o
 .ARM.attributes
                0x000001f4       0x32 build/tetrix.o
 .ARM.attributes
                0x00000226       0x32 build/syslib/at91sam7s-gnu/lego_nxt/hw_sys_timer.oram
 .ARM.attributes
                0x00000258       0x22 build/ecrobot_init.o
 .ARM.attributes
                0x0000027a       0x22 build/config/at91sam7s-gnu/cpu_support.oram
 .ARM.attributes
                0x0000029c       0x22 build/config/at91sam7s-gnu/irq.oram
 .ARM.attributes
                0x000002be       0x32 ../../ecrobot/../ecrobot/libecrobot.a(ecrobot_HiTechnic.o)
 .ARM.attributes
                0x000002f0       0x32 ../../ecrobot/../ecrobot/libecrobot.a(ecrobot_interface.o)
 .ARM.attributes
                0x00000322       0x32 ../../ecrobot/../ecrobot/libecrobot.a(osek_hook.o)
 .ARM.attributes
                0x00000354       0x32 ../../ecrobot/../ecrobot/libecrobot.a(uart.oram)
 .ARM.attributes
                0x00000386       0x32 ../../ecrobot/../ecrobot/libecrobot.a(systick.oram)
 .ARM.attributes
                0x000003b8       0x32 ../../ecrobot/../ecrobot/libecrobot.a(byte_fifo.oram)
 .ARM.attributes
                0x000003ea       0x32 ../../ecrobot/../ecrobot/libecrobot.a(aic.oram)
 .ARM.attributes
                0x0000041c       0x32 ../../ecrobot/../ecrobot/libecrobot.a(udp.oram)
 .ARM.attributes
                0x0000044e       0x32 ../../ecrobot/../ecrobot/libecrobot.a(twi.oram)
 .ARM.attributes
                0x00000480       0x32 ../../ecrobot/../ecrobot/libecrobot.a(nxt_spi.oram)
 .ARM.attributes
                0x000004b2       0x32 ../../ecrobot/../ecrobot/libecrobot.a(nxt_motors.oram)
 .ARM.attributes
                0x000004e4       0x32 ../../ecrobot/../ecrobot/libecrobot.a(data_abort.oram)
 .ARM.attributes
                0x00000516       0x32 ../../ecrobot/../ecrobot/libecrobot.a(display.oram)
 .ARM.attributes
                0x00000548       0x32 ../../ecrobot/../ecrobot/libecrobot.a(i2c.oram)
 .ARM.attributes
                0x0000057a       0x32 ../../ecrobot/../ecrobot/libecrobot.a(sound.oram)
 .ARM.attributes
                0x000005ac       0x32 ../../ecrobot/../ecrobot/libecrobot.a(bt.oram)
 .ARM.attributes
                0x000005de       0x32 ../../ecrobot/../ecrobot/libecrobot.a(nxt_avr.oram)
 .ARM.attributes
                0x00000610       0x32 ../../ecrobot/../ecrobot/libecrobot.a(sensors.oram)
 .ARM.attributes
                0x00000642       0x32 ../../ecrobot/../ecrobot/libecrobot.a(nxt_lcd.oram)
 .ARM.attributes
                0x00000674       0x32 ../../ecrobot/../ecrobot/libecrobot.a(flash_loader.oram)
 .ARM.attributes
                0x000006a6       0x22 ../../ecrobot/../ecrobot/libecrobot.a(interrupts.oram)
 .ARM.attributes
                0x000006c8       0x32 ../../ecrobot/../ecrobot/libecrobot.a(flashprog.oram)
 .ARM.attributes
                0x000006fa       0x18 /home/adrian/CodeSourcery/Sourcery_CodeBench_Lite_for_ARM_EABI/bin/../lib/gcc/arm-none-eabi/4.6.3/thumb/libgcc.a(_thumb1_case_uqi.o)
 .ARM.attributes
                0x00000712       0x18 /home/adrian/CodeSourcery/Sourcery_CodeBench_Lite_for_ARM_EABI/bin/../lib/gcc/arm-none-eabi/4.6.3/thumb/libgcc.a(_thumb1_case_uhi.o)
 .ARM.attributes
                0x0000072a       0x1a /home/adrian/CodeSourcery/Sourcery_CodeBench_Lite_for_ARM_EABI/bin/../lib/gcc/arm-none-eabi/4.6.3/thumb/libgcc.a(_udivsi3.o)
 .ARM.attributes
                0x00000744       0x1a /home/adrian/CodeSourcery/Sourcery_CodeBench_Lite_for_ARM_EABI/bin/../lib/gcc/arm-none-eabi/4.6.3/thumb/libgcc.a(_divsi3.o)
 .ARM.attributes
                0x0000075e       0x18 /home/adrian/CodeSourcery/Sourcery_CodeBench_Lite_for_ARM_EABI/bin/../lib/gcc/arm-none-eabi/4.6.3/thumb/libgcc.a(_dvmd_tls.o)
 .ARM.attributes
                0x00000776       0x32 /home/adrian/CodeSourcery/Sourcery_CodeBench_Lite_for_ARM_EABI/bin/../lib/gcc/arm-none-eabi/4.6.3/thumb/libgcc.a(_muldi3.o)
 .ARM.attributes
                0x000007a8       0x32 /home/adrian/CodeSourcery/Sourcery_CodeBench_Lite_for_ARM_EABI/bin/../lib/gcc/arm-none-eabi/4.6.3/../../../../arm-none-eabi/lib/thumb/libc.a(lib_a-cxa_finalize.o)
 .ARM.attributes
                0x000007da       0x32 /home/adrian/CodeSourcery/Sourcery_CodeBench_Lite_for_ARM_EABI/bin/../lib/gcc/arm-none-eabi/4.6.3/../../../../arm-none-eabi/lib/thumb/libc.a(lib_a-memset.o)
 .ARM.attributes
                0x0000080c       0x32 /home/adrian/CodeSourcery/Sourcery_CodeBench_Lite_for_ARM_EABI/bin/../lib/gcc/arm-none-eabi/4.6.3/../../../../arm-none-eabi/lib/thumb/libc.a(lib_a-rand.o)
 .ARM.attributes
                0x0000083e       0x32 /home/adrian/CodeSourcery/Sourcery_CodeBench_Lite_for_ARM_EABI/bin/../lib/gcc/arm-none-eabi/4.6.3/../../../../arm-none-eabi/lib/thumb/libc.a(lib_a-strcpy.o)
 .ARM.attributes
                0x00000870       0x32 /home/adrian/CodeSourcery/Sourcery_CodeBench_Lite_for_ARM_EABI/bin/../lib/gcc/arm-none-eabi/4.6.3/../../../../arm-none-eabi/lib/thumb/libc.a(lib_a-strlen.o)
 .ARM.attributes
                0x000008a2       0x32 /home/adrian/CodeSourcery/Sourcery_CodeBench_Lite_for_ARM_EABI/bin/../lib/gcc/arm-none-eabi/4.6.3/../../../../arm-none-eabi/lib/thumb/libc.a(lib_a-__call_atexit.o)
 .ARM.attributes
                0x000008d4       0x32 /home/adrian/CodeSourcery/Sourcery_CodeBench_Lite_for_ARM_EABI/bin/../lib/gcc/arm-none-eabi/4.6.3/../../../../arm-none-eabi/lib/thumb/libc.a(lib_a-impure.o)
 .ARM.attributes
                0x00000906       0x22 build/nxtvm/platform/nxt/vectors.o

.debug_frame    0x00000000      0x190
 .debug_frame   0x00000000       0x20 /home/adrian/CodeSourcery/Sourcery_CodeBench_Lite_for_ARM_EABI/bin/../lib/gcc/arm-none-eabi/4.6.3/thumb/libgcc.a(_udivsi3.o)
 .debug_frame   0x00000020       0x20 /home/adrian/CodeSourcery/Sourcery_CodeBench_Lite_for_ARM_EABI/bin/../lib/gcc/arm-none-eabi/4.6.3/thumb/libgcc.a(_divsi3.o)
 .debug_frame   0x00000040       0x30 /home/adrian/CodeSourcery/Sourcery_CodeBench_Lite_for_ARM_EABI/bin/../lib/gcc/arm-none-eabi/4.6.3/thumb/libgcc.a(_muldi3.o)
 .debug_frame   0x00000070       0x28 /home/adrian/CodeSourcery/Sourcery_CodeBench_Lite_for_ARM_EABI/bin/../lib/gcc/arm-none-eabi/4.6.3/../../../../arm-none-eabi/lib/thumb/libc.a(lib_a-cxa_finalize.o)
 .debug_frame   0x00000098       0x2c /home/adrian/CodeSourcery/Sourcery_CodeBench_Lite_for_ARM_EABI/bin/../lib/gcc/arm-none-eabi/4.6.3/../../../../arm-none-eabi/lib/thumb/libc.a(lib_a-memset.o)
 .debug_frame   0x000000c4       0x38 /home/adrian/CodeSourcery/Sourcery_CodeBench_Lite_for_ARM_EABI/bin/../lib/gcc/arm-none-eabi/4.6.3/../../../../arm-none-eabi/lib/thumb/libc.a(lib_a-rand.o)
 .debug_frame   0x000000fc       0x20 /home/adrian/CodeSourcery/Sourcery_CodeBench_Lite_for_ARM_EABI/bin/../lib/gcc/arm-none-eabi/4.6.3/../../../../arm-none-eabi/lib/thumb/libc.a(lib_a-strcpy.o)
 .debug_frame   0x0000011c       0x20 /home/adrian/CodeSourcery/Sourcery_CodeBench_Lite_for_ARM_EABI/bin/../lib/gcc/arm-none-eabi/4.6.3/../../../../arm-none-eabi/lib/thumb/libc.a(lib_a-strlen.o)
 .debug_frame   0x0000013c       0x54 /home/adrian/CodeSourcery/Sourcery_CodeBench_Lite_for_ARM_EABI/bin/../lib/gcc/arm-none-eabi/4.6.3/../../../../arm-none-eabi/lib/thumb/libc.a(lib_a-__call_atexit.o)

Cross Reference Table

Symbol                                            File
ActivateTask                                      build/kernel/task_manage.o
                                                  build/./kernel_cfg.o
CancelAlarm                                       build/kernel/alarm.o
ChainTask                                         build/kernel/task_manage.o
ClearEvent                                        build/kernel/event.o
DisableAllInterrupts                              build/kernel/interrupt.o
EnableAllInterrupts                               build/kernel/interrupt.o
ErrorHook                                         ../../ecrobot/../ecrobot/libecrobot.a(osek_hook.o)
                                                  build/kernel/osctl.o
GetActiveApplicationMode                          build/kernel/osctl.o
GetAlarm                                          build/kernel/alarm.o
GetAlarmBase                                      build/kernel/alarm.o
GetEvent                                          build/kernel/event.o
GetResource                                       build/kernel/resource.o
GetTaskID                                         build/kernel/task_manage.o
GetTaskState                                      build/kernel/task_manage.o
NXT_COLORSENSOR_PROTOCOLS                         ../../ecrobot/../ecrobot/libecrobot.a(ecrobot_interface.o)
NXT_Entry_Point                                   build/nxt_entry_point.o
                                                  build/nxt_binary_header.o
PostTaskHook                                      ../../ecrobot/../ecrobot/libecrobot.a(osek_hook.o)
                                                  build/config/at91sam7s-gnu/cpu_support.oram
                                                  build/kernel/osctl.o
PreTaskHook                                       ../../ecrobot/../ecrobot/libecrobot.a(osek_hook.o)
                                                  build/config/at91sam7s-gnu/cpu_support.oram
                                                  build/kernel/osctl.o
ReleaseResource                                   build/kernel/resource.o
ResumeAllInterrupts                               build/kernel/interrupt.o
ResumeOSInterrupts                                build/kernel/interrupt.o
Schedule                                          build/kernel/task_manage.o
SetAbsAlarm                                       build/kernel/alarm.o
SetEvent                                          build/kernel/event.o
SetRelAlarm                                       build/kernel/alarm.o
ShutdownHook                                      ../../ecrobot/../ecrobot/libecrobot.a(osek_hook.o)
                                                  build/kernel/osctl.o
ShutdownOS                                        build/kernel/osctl.o
                                                  build/tetrix.o
SignalCounter                                     build/kernel/alarm.o
                                                  build/tetrix.o
StartOS                                           build/kernel/osctl.o
                                                  build/ecrobot.o
StartupHook                                       ../../ecrobot/../ecrobot/libecrobot.a(osek_hook.o)
                                                  build/kernel/osctl.o
SuspendAllInterrupts                              build/kernel/interrupt.o
SuspendOSInterrupts                               build/kernel/interrupt.o
SysTimerCnt                                       build/./kernel_cfg.o
                                                  build/tetrix.o
Task1                                             build/./kernel_cfg.o
TaskMainTask1                                     build/tetrix.o
                                                  build/./kernel_cfg.o
TerminateTask                                     build/kernel/task_manage.o
                                                  build/tetrix.o
WaitEvent                                         build/kernel/event.o
__adddf3                                          /home/adrian/CodeSourcery/Sourcery_CodeBench_Lite_for_ARM_EABI/bin/../lib/gcc/arm-none-eabi/4.6.3/thumb/libgcc.a(_arm_addsubdf3.o)
__aeabi_cdcmpeq                                   /home/adrian/CodeSourcery/Sourcery_CodeBench_Lite_for_ARM_EABI/bin/../lib/gcc/arm-none-eabi/4.6.3/thumb/libgcc.a(_arm_cmpdf2.o)
__aeabi_cdcmple                                   /home/adrian/CodeSourcery/Sourcery_CodeBench_Lite_for_ARM_EABI/bin/../lib/gcc/arm-none-eabi/4.6.3/thumb/libgcc.a(_arm_cmpdf2.o)
__aeabi_cdrcmple                                  /home/adrian/CodeSourcery/Sourcery_CodeBench_Lite_for_ARM_EABI/bin/../lib/gcc/arm-none-eabi/4.6.3/thumb/libgcc.a(_arm_cmpdf2.o)
__aeabi_dadd                                      /home/adrian/CodeSourcery/Sourcery_CodeBench_Lite_for_ARM_EABI/bin/../lib/gcc/arm-none-eabi/4.6.3/thumb/libgcc.a(_arm_addsubdf3.o)
__aeabi_dcmpeq                                    /home/adrian/CodeSourcery/Sourcery_CodeBench_Lite_for_ARM_EABI/bin/../lib/gcc/arm-none-eabi/4.6.3/thumb/libgcc.a(_arm_cmpdf2.o)
__aeabi_dcmpge                                    /home/adrian/CodeSourcery/Sourcery_CodeBench_Lite_for_ARM_EABI/bin/../lib/gcc/arm-none-eabi/4.6.3/thumb/libgcc.a(_arm_cmpdf2.o)
__aeabi_dcmpgt                                    /home/adrian/CodeSourcery/Sourcery_CodeBench_Lite_for_ARM_EABI/bin/../lib/gcc/arm-none-eabi/4.6.3/thumb/libgcc.a(_arm_cmpdf2.o)
                                                  ../../ecrobot/../ecrobot/libecrobot.a(colorsensor.o)
__aeabi_dcmple                                    /home/adrian/CodeSourcery/Sourcery_CodeBench_Lite_for_ARM_EABI/bin/../lib/gcc/arm-none-eabi/4.6.3/thumb/libgcc.a(_arm_cmpdf2.o)
__aeabi_dcmplt                                    /home/adrian/CodeSourcery/Sourcery_CodeBench_Lite_for_ARM_EABI/bin/../lib/gcc/arm-none-eabi/4.6.3/thumb/libgcc.a(_arm_cmpdf2.o)
__aeabi_ddiv                                      /home/adrian/CodeSourcery/Sourcery_CodeBench_Lite_for_ARM_EABI/bin/../lib/gcc/arm-none-eabi/4.6.3/thumb/libgcc.a(_arm_muldivdf3.o)
__aeabi_dmul                                      /home/adrian/CodeSourcery/Sourcery_CodeBench_Lite_for_ARM_EABI/bin/../lib/gcc/arm-none-eabi/4.6.3/thumb/libgcc.a(_arm_muldivdf3.o)
                                                  ../../ecrobot/../ecrobot/libecrobot.a(colorsensor.o)
__aeabi_drsub                                     /home/adrian/CodeSourcery/Sourcery_CodeBench_Lite_for_ARM_EABI/bin/../lib/gcc/arm-none-eabi/4.6.3/thumb/libgcc.a(_arm_addsubdf3.o)
__aeabi_dsub                                      /home/adrian/CodeSourcery/Sourcery_CodeBench_Lite_for_ARM_EABI/bin/../lib/gcc/arm-none-eabi/4.6.3/thumb/libgcc.a(_arm_addsubdf3.o)
__aeabi_f2d                                       /home/adrian/CodeSourcery/Sourcery_CodeBench_Lite_for_ARM_EABI/bin/../lib/gcc/arm-none-eabi/4.6.3/thumb/libgcc.a(_arm_addsubdf3.o)
__aeabi_i2d                                       /home/adrian/CodeSourcery/Sourcery_CodeBench_Lite_for_ARM_EABI/bin/../lib/gcc/arm-none-eabi/4.6.3/thumb/libgcc.a(_arm_addsubdf3.o)
                                                  ../../ecrobot/../ecrobot/libecrobot.a(colorsensor.o)
__aeabi_idiv                                      /home/adrian/CodeSourcery/Sourcery_CodeBench_Lite_for_ARM_EABI/bin/../lib/gcc/arm-none-eabi/4.6.3/thumb/libgcc.a(_divsi3.o)
                                                  ../../ecrobot/../ecrobot/libecrobot.a(sound.oram)
                                                  ../../ecrobot/../ecrobot/libecrobot.a(uart.oram)
__aeabi_idiv0                                     /home/adrian/CodeSourcery/Sourcery_CodeBench_Lite_for_ARM_EABI/bin/../lib/gcc/arm-none-eabi/4.6.3/thumb/libgcc.a(_dvmd_tls.o)
                                                  /home/adrian/CodeSourcery/Sourcery_CodeBench_Lite_for_ARM_EABI/bin/../lib/gcc/arm-none-eabi/4.6.3/thumb/libgcc.a(_divsi3.o)
                                                  /home/adrian/CodeSourcery/Sourcery_CodeBench_Lite_for_ARM_EABI/bin/../lib/gcc/arm-none-eabi/4.6.3/thumb/libgcc.a(_udivsi3.o)
__aeabi_idivmod                                   /home/adrian/CodeSourcery/Sourcery_CodeBench_Lite_for_ARM_EABI/bin/../lib/gcc/arm-none-eabi/4.6.3/thumb/libgcc.a(_divsi3.o)
                                                  ../../ecrobot/../ecrobot/libecrobot.a(sound.oram)
                                                  build/tetrix.o
__aeabi_l2d                                       /home/adrian/CodeSourcery/Sourcery_CodeBench_Lite_for_ARM_EABI/bin/../lib/gcc/arm-none-eabi/4.6.3/thumb/libgcc.a(_arm_addsubdf3.o)
__aeabi_ldiv0                                     /home/adrian/CodeSourcery/Sourcery_CodeBench_Lite_for_ARM_EABI/bin/../lib/gcc/arm-none-eabi/4.6.3/thumb/libgcc.a(_dvmd_tls.o)
                                                  /home/adrian/CodeSourcery/Sourcery_CodeBench_Lite_for_ARM_EABI/bin/../lib/gcc/arm-none-eabi/4.6.3/thumb/libgcc.a(_aeabi_ldivmod.o)
__aeabi_ldivmod                                   /home/adrian/CodeSourcery/Sourcery_CodeBench_Lite_for_ARM_EABI/bin/../lib/gcc/arm-none-eabi/4.6.3/thumb/libgcc.a(_aeabi_ldivmod.o)
                                                  ../../ecrobot/../ecrobot/libecrobot.a(sound.oram)
__aeabi_lmul                                      /home/adrian/CodeSourcery/Sourcery_CodeBench_Lite_for_ARM_EABI/bin/../lib/gcc/arm-none-eabi/4.6.3/thumb/libgcc.a(_muldi3.o)
                                                  /home/adrian/CodeSourcery/Sourcery_CodeBench_Lite_for_ARM_EABI/bin/../lib/gcc/arm-none-eabi/4.6.3/../../../../arm-none-eabi/lib/thumb/libc.a(lib_a-rand.o)
                                                  /home/adrian/CodeSourcery/Sourcery_CodeBench_Lite_for_ARM_EABI/bin/../lib/gcc/arm-none-eabi/4.6.3/thumb/libgcc.a(bpabi.o)
                                                  ../../ecrobot/../ecrobot/libecrobot.a(sound.oram)
__aeabi_ui2d                                      /home/adrian/CodeSourcery/Sourcery_CodeBench_Lite_for_ARM_EABI/bin/../lib/gcc/arm-none-eabi/4.6.3/thumb/libgcc.a(_arm_addsubdf3.o)
__aeabi_uidiv                                     /home/adrian/CodeSourcery/Sourcery_CodeBench_Lite_for_ARM_EABI/bin/../lib/gcc/arm-none-eabi/4.6.3/thumb/libgcc.a(_udivsi3.o)
                                                  /home/adrian/CodeSourcery/Sourcery_CodeBench_Lite_for_ARM_EABI/bin/../lib/gcc/arm-none-eabi/4.6.3/thumb/libgcc.a(_udivdi3.o)
                                                  /home/adrian/CodeSourcery/Sourcery_CodeBench_Lite_for_ARM_EABI/bin/../lib/gcc/arm-none-eabi/4.6.3/thumb/libgcc.a(_divdi3.o)
                                                  ../../ecrobot/../ecrobot/libecrobot.a(sound.oram)
                                                  ../../ecrobot/../ecrobot/libecrobot.a(display.oram)
                                                  ../../ecrobot/../ecrobot/libecrobot.a(ecrobot_interface.o)
                                                  build/ecrobot_base.o
__aeabi_uidivmod                                  /home/adrian/CodeSourcery/Sourcery_CodeBench_Lite_for_ARM_EABI/bin/../lib/gcc/arm-none-eabi/4.6.3/thumb/libgcc.a(_udivsi3.o)
                                                  /home/adrian/CodeSourcery/Sourcery_CodeBench_Lite_for_ARM_EABI/bin/../lib/gcc/arm-none-eabi/4.6.3/thumb/libgcc.a(_udivdi3.o)
                                                  /home/adrian/CodeSourcery/Sourcery_CodeBench_Lite_for_ARM_EABI/bin/../lib/gcc/arm-none-eabi/4.6.3/thumb/libgcc.a(_divdi3.o)
                                                  ../../ecrobot/../ecrobot/libecrobot.a(display.oram)
__aeabi_ul2d                                      /home/adrian/CodeSourcery/Sourcery_CodeBench_Lite_for_ARM_EABI/bin/../lib/gcc/arm-none-eabi/4.6.3/thumb/libgcc.a(_arm_addsubdf3.o)
__bss_end__                                       build/ecrobot_init.o
__bss_start__                                     build/ecrobot_init.o
__call_exitprocs                                  /home/adrian/CodeSourcery/Sourcery_CodeBench_Lite_for_ARM_EABI/bin/../lib/gcc/arm-none-eabi/4.6.3/../../../../arm-none-eabi/lib/thumb/libc.a(lib_a-__call_atexit.o)
                                                  /home/adrian/CodeSourcery/Sourcery_CodeBench_Lite_for_ARM_EABI/bin/../lib/gcc/arm-none-eabi/4.6.3/../../../../arm-none-eabi/lib/thumb/libc.a(lib_a-cxa_finalize.o)
__clzsi2                                          /home/adrian/CodeSourcery/Sourcery_CodeBench_Lite_for_ARM_EABI/bin/../lib/gcc/arm-none-eabi/4.6.3/thumb/libgcc.a(_clzsi2.o)
                                                  /home/adrian/CodeSourcery/Sourcery_CodeBench_Lite_for_ARM_EABI/bin/../lib/gcc/arm-none-eabi/4.6.3/thumb/libgcc.a(_udivdi3.o)
                                                  /home/adrian/CodeSourcery/Sourcery_CodeBench_Lite_for_ARM_EABI/bin/../lib/gcc/arm-none-eabi/4.6.3/thumb/libgcc.a(_divdi3.o)
__cmpdf2                                          /home/adrian/CodeSourcery/Sourcery_CodeBench_Lite_for_ARM_EABI/bin/../lib/gcc/arm-none-eabi/4.6.3/thumb/libgcc.a(_arm_cmpdf2.o)
__ctor_begin                                      build/ecrobot_base.o
__ctor_end                                        build/ecrobot_base.o
__cxa_finalize                                    /home/adrian/CodeSourcery/Sourcery_CodeBench_Lite_for_ARM_EABI/bin/../lib/gcc/arm-none-eabi/4.6.3/../../../../arm-none-eabi/lib/thumb/libc.a(lib_a-cxa_finalize.o)
                                                  build/ecrobot_base.o
__data_load_end__                                 build/ecrobot_init.o
__data_load_start__                               build/ecrobot_init.o
__data_ram_start__                                build/ecrobot_init.o
__divdf3                                          /home/adrian/CodeSourcery/Sourcery_CodeBench_Lite_for_ARM_EABI/bin/../lib/gcc/arm-none-eabi/4.6.3/thumb/libgcc.a(_arm_muldivdf3.o)
__divdi3                                          /home/adrian/CodeSourcery/Sourcery_CodeBench_Lite_for_ARM_EABI/bin/../lib/gcc/arm-none-eabi/4.6.3/thumb/libgcc.a(_divdi3.o)
                                                  /home/adrian/CodeSourcery/Sourcery_CodeBench_Lite_for_ARM_EABI/bin/../lib/gcc/arm-none-eabi/4.6.3/thumb/libgcc.a(bpabi.o)
__divsi3                                          /home/adrian/CodeSourcery/Sourcery_CodeBench_Lite_for_ARM_EABI/bin/../lib/gcc/arm-none-eabi/4.6.3/thumb/libgcc.a(_divsi3.o)
__eqdf2                                           /home/adrian/CodeSourcery/Sourcery_CodeBench_Lite_for_ARM_EABI/bin/../lib/gcc/arm-none-eabi/4.6.3/thumb/libgcc.a(_arm_cmpdf2.o)
__extendsfdf2                                     /home/adrian/CodeSourcery/Sourcery_CodeBench_Lite_for_ARM_EABI/bin/../lib/gcc/arm-none-eabi/4.6.3/thumb/libgcc.a(_arm_addsubdf3.o)
__fini_array_end                                  /home/adrian/CodeSourcery/Sourcery_CodeBench_Lite_for_ARM_EABI/bin/../lib/gcc/arm-none-eabi/4.6.3/../../../../arm-none-eabi/lib/thumb/libc.a(lib_a-fini.o)
__fini_array_start                                /home/adrian/CodeSourcery/Sourcery_CodeBench_Lite_for_ARM_EABI/bin/../lib/gcc/arm-none-eabi/4.6.3/../../../../arm-none-eabi/lib/thumb/libc.a(lib_a-fini.o)
__floatdidf                                       /home/adrian/CodeSourcery/Sourcery_CodeBench_Lite_for_ARM_EABI/bin/../lib/gcc/arm-none-eabi/4.6.3/thumb/libgcc.a(_arm_addsubdf3.o)
__floatsidf                                       /home/adrian/CodeSourcery/Sourcery_CodeBench_Lite_for_ARM_EABI/bin/../lib/gcc/arm-none-eabi/4.6.3/thumb/libgcc.a(_arm_addsubdf3.o)
__floatundidf                                     /home/adrian/CodeSourcery/Sourcery_CodeBench_Lite_for_ARM_EABI/bin/../lib/gcc/arm-none-eabi/4.6.3/thumb/libgcc.a(_arm_addsubdf3.o)
__floatunsidf                                     /home/adrian/CodeSourcery/Sourcery_CodeBench_Lite_for_ARM_EABI/bin/../lib/gcc/arm-none-eabi/4.6.3/thumb/libgcc.a(_arm_addsubdf3.o)
__gedf2                                           /home/adrian/CodeSourcery/Sourcery_CodeBench_Lite_for_ARM_EABI/bin/../lib/gcc/arm-none-eabi/4.6.3/thumb/libgcc.a(_arm_cmpdf2.o)
__gnu_ldivmod_helper                              /home/adrian/CodeSourcery/Sourcery_CodeBench_Lite_for_ARM_EABI/bin/../lib/gcc/arm-none-eabi/4.6.3/thumb/libgcc.a(bpabi.o)
                                                  /home/adrian/CodeSourcery/Sourcery_CodeBench_Lite_for_ARM_EABI/bin/../lib/gcc/arm-none-eabi/4.6.3/thumb/libgcc.a(_aeabi_ldivmod.o)
__gnu_thumb1_case_uhi                             /home/adrian/CodeSourcery/Sourcery_CodeBench_Lite_for_ARM_EABI/bin/../lib/gcc/arm-none-eabi/4.6.3/thumb/libgcc.a(_thumb1_case_uhi.o)
                                                  ../../ecrobot/../ecrobot/libecrobot.a(i2c.oram)
__gnu_thumb1_case_uqi                             /home/adrian/CodeSourcery/Sourcery_CodeBench_Lite_for_ARM_EABI/bin/../lib/gcc/arm-none-eabi/4.6.3/thumb/libgcc.a(_thumb1_case_uqi.o)
                                                  ../../ecrobot/../ecrobot/libecrobot.a(sensors1.oram)
                                                  ../../ecrobot/../ecrobot/libecrobot.a(nxt_avr.oram)
                                                  ../../ecrobot/../ecrobot/libecrobot.a(uart.oram)
__gnu_uldivmod_helper                             /home/adrian/CodeSourcery/Sourcery_CodeBench_Lite_for_ARM_EABI/bin/../lib/gcc/arm-none-eabi/4.6.3/thumb/libgcc.a(bpabi.o)
__gtdf2                                           /home/adrian/CodeSourcery/Sourcery_CodeBench_Lite_for_ARM_EABI/bin/../lib/gcc/arm-none-eabi/4.6.3/thumb/libgcc.a(_arm_cmpdf2.o)
__irq_stack__                                     build/ecrobot_init.o
__ledf2                                           /home/adrian/CodeSourcery/Sourcery_CodeBench_Lite_for_ARM_EABI/bin/../lib/gcc/arm-none-eabi/4.6.3/thumb/libgcc.a(_arm_cmpdf2.o)
__libc_fini                                       /home/adrian/CodeSourcery/Sourcery_CodeBench_Lite_for_ARM_EABI/bin/../lib/gcc/arm-none-eabi/4.6.3/../../../../arm-none-eabi/lib/thumb/libc.a(lib_a-__call_atexit.o)
__libc_fini_array                                 /home/adrian/CodeSourcery/Sourcery_CodeBench_Lite_for_ARM_EABI/bin/../lib/gcc/arm-none-eabi/4.6.3/../../../../arm-none-eabi/lib/thumb/libc.a(lib_a-fini.o)
                                                  /home/adrian/CodeSourcery/Sourcery_CodeBench_Lite_for_ARM_EABI/bin/../lib/gcc/arm-none-eabi/4.6.3/../../../../arm-none-eabi/lib/thumb/libc.a(lib_a-__call_atexit.o)
__ltdf2                                           /home/adrian/CodeSourcery/Sourcery_CodeBench_Lite_for_ARM_EABI/bin/../lib/gcc/arm-none-eabi/4.6.3/thumb/libgcc.a(_arm_cmpdf2.o)
__muldf3                                          /home/adrian/CodeSourcery/Sourcery_CodeBench_Lite_for_ARM_EABI/bin/../lib/gcc/arm-none-eabi/4.6.3/thumb/libgcc.a(_arm_muldivdf3.o)
__muldi3                                          /home/adrian/CodeSourcery/Sourcery_CodeBench_Lite_for_ARM_EABI/bin/../lib/gcc/arm-none-eabi/4.6.3/thumb/libgcc.a(_muldi3.o)
__nedf2                                           /home/adrian/CodeSourcery/Sourcery_CodeBench_Lite_for_ARM_EABI/bin/../lib/gcc/arm-none-eabi/4.6.3/thumb/libgcc.a(_arm_cmpdf2.o)
__ramtext_load_end__                              build/ecrobot_init.o
__ramtext_load_start__                            build/ecrobot_init.o
__ramtext_ram_start__                             build/ecrobot_init.o
__register_exitproc                               /home/adrian/CodeSourcery/Sourcery_CodeBench_Lite_for_ARM_EABI/bin/../lib/gcc/arm-none-eabi/4.6.3/../../../../arm-none-eabi/lib/thumb/libc.a(lib_a-__atexit.o)
                                                  /home/adrian/CodeSourcery/Sourcery_CodeBench_Lite_for_ARM_EABI/bin/../lib/gcc/arm-none-eabi/4.6.3/../../../../arm-none-eabi/lib/thumb/libc.a(lib_a-atexit.o)
__stack_end__                                     build/ecrobot_init.o
__stack_start__                                   build/ecrobot_init.o
__subdf3                                          /home/adrian/CodeSourcery/Sourcery_CodeBench_Lite_for_ARM_EABI/bin/../lib/gcc/arm-none-eabi/4.6.3/thumb/libgcc.a(_arm_addsubdf3.o)
__system_stack__                                  build/config/at91sam7s-gnu/cpu_support.oram
                                                  build/ecrobot_init.o
__udivdi3                                         /home/adrian/CodeSourcery/Sourcery_CodeBench_Lite_for_ARM_EABI/bin/../lib/gcc/arm-none-eabi/4.6.3/thumb/libgcc.a(_udivdi3.o)
                                                  /home/adrian/CodeSourcery/Sourcery_CodeBench_Lite_for_ARM_EABI/bin/../lib/gcc/arm-none-eabi/4.6.3/thumb/libgcc.a(bpabi.o)
__udivsi3                                         /home/adrian/CodeSourcery/Sourcery_CodeBench_Lite_for_ARM_EABI/bin/../lib/gcc/arm-none-eabi/4.6.3/thumb/libgcc.a(_udivsi3.o)
__vectors_load_end__                              build/ecrobot_init.o
__vectors_load_start__                            build/ecrobot_init.o
__vectors_ram_start__                             build/ecrobot_init.o
_errorhook_par1                                   build/kernel/task_manage.o
                                                  build/kernel/resource.o
                                                  build/kernel/osctl.o
                                                  build/kernel/event.o
                                                  build/kernel/alarm.o
_errorhook_par2                                   build/kernel/task_manage.o
                                                  build/kernel/osctl.o
                                                  build/kernel/event.o
                                                  build/kernel/alarm.o
_errorhook_par3                                   build/kernel/osctl.o
                                                  build/kernel/alarm.o
_errorhook_svcid                                  build/kernel/osctl.o
_fini                                             /home/adrian/CodeSourcery/Sourcery_CodeBench_Lite_for_ARM_EABI/bin/../lib/gcc/arm-none-eabi/4.6.3/../../../../arm-none-eabi/lib/thumb/libc.a(lib_a-fini.o)
_global_impure_ptr                                /home/adrian/CodeSourcery/Sourcery_CodeBench_Lite_for_ARM_EABI/bin/../lib/gcc/arm-none-eabi/4.6.3/../../../../arm-none-eabi/lib/thumb/libc.a(lib_a-impure.o)
                                                  /home/adrian/CodeSourcery/Sourcery_CodeBench_Lite_for_ARM_EABI/bin/../lib/gcc/arm-none-eabi/4.6.3/../../../../arm-none-eabi/lib/thumb/libc.a(lib_a-__atexit.o)
                                                  /home/adrian/CodeSourcery/Sourcery_CodeBench_Lite_for_ARM_EABI/bin/../lib/gcc/arm-none-eabi/4.6.3/../../../../arm-none-eabi/lib/thumb/libc.a(lib_a-__call_atexit.o)
_impure_ptr                                       /home/adrian/CodeSourcery/Sourcery_CodeBench_Lite_for_ARM_EABI/bin/../lib/gcc/arm-none-eabi/4.6.3/../../../../arm-none-eabi/lib/thumb/libc.a(lib_a-impure.o)
                                                  /home/adrian/CodeSourcery/Sourcery_CodeBench_Lite_for_ARM_EABI/bin/../lib/gcc/arm-none-eabi/4.6.3/../../../../arm-none-eabi/lib/thumb/libc.a(lib_a-rand.o)
_interrupt                                        build/config/at91sam7s-gnu/cpu_support.oram
                                                  build/config/at91sam7s-gnu/irq.oram
_sbrk_r                                           build/syscalls.o
activate_r                                        build/config/at91sam7s-gnu/cpu_support.oram
                                                  build/kernel/task.o
add_status_info                                   build/ecrobot_base.o
                                                  build/ecrobot.o
                                                  build/ecrobot_bluetooth.o
aic_clear                                         ../../ecrobot/../ecrobot/libecrobot.a(aic.oram)
                                                  ../../ecrobot/../ecrobot/libecrobot.a(bt.oram)
                                                  ../../ecrobot/../ecrobot/libecrobot.a(sound.oram)
aic_initialise                                    ../../ecrobot/../ecrobot/libecrobot.a(aic.oram)
                                                  ../../ecrobot/../ecrobot/libecrobot.a(flash_loader.oram)
aic_mask_off                                      ../../ecrobot/../ecrobot/libecrobot.a(aic.oram)
                                                  ../../ecrobot/../ecrobot/libecrobot.a(bt.oram)
                                                  ../../ecrobot/../ecrobot/libecrobot.a(i2c.oram)
                                                  ../../ecrobot/../ecrobot/libecrobot.a(nxt_motors.oram)
                                                  ../../ecrobot/../ecrobot/libecrobot.a(nxt_spi.oram)
                                                  ../../ecrobot/../ecrobot/libecrobot.a(twi.oram)
                                                  ../../ecrobot/../ecrobot/libecrobot.a(udp.oram)
                                                  ../../ecrobot/../ecrobot/libecrobot.a(systick.oram)
                                                  ../../ecrobot/../ecrobot/libecrobot.a(uart.oram)
aic_mask_on                                       ../../ecrobot/../ecrobot/libecrobot.a(aic.oram)
                                                  ../../ecrobot/../ecrobot/libecrobot.a(sound.oram)
                                                  ../../ecrobot/../ecrobot/libecrobot.a(i2c.oram)
                                                  ../../ecrobot/../ecrobot/libecrobot.a(nxt_motors.oram)
                                                  ../../ecrobot/../ecrobot/libecrobot.a(nxt_spi.oram)
                                                  ../../ecrobot/../ecrobot/libecrobot.a(twi.oram)
                                                  ../../ecrobot/../ecrobot/libecrobot.a(udp.oram)
                                                  ../../ecrobot/../ecrobot/libecrobot.a(systick.oram)
                                                  ../../ecrobot/../ecrobot/libecrobot.a(uart.oram)
aic_set_vector                                    ../../ecrobot/../ecrobot/libecrobot.a(aic.oram)
                                                  ../../ecrobot/../ecrobot/libecrobot.a(sound.oram)
                                                  ../../ecrobot/../ecrobot/libecrobot.a(i2c.oram)
                                                  ../../ecrobot/../ecrobot/libecrobot.a(nxt_motors.oram)
                                                  ../../ecrobot/../ecrobot/libecrobot.a(nxt_spi.oram)
                                                  ../../ecrobot/../ecrobot/libecrobot.a(twi.oram)
                                                  ../../ecrobot/../ecrobot/libecrobot.a(udp.oram)
                                                  ../../ecrobot/../ecrobot/libecrobot.a(systick.oram)
                                                  ../../ecrobot/../ecrobot/libecrobot.a(uart.oram)
alarm_initialize                                  build/kernel/alarm.o
                                                  build/./kernel_cfg.o
almcb_almval                                      build/./kernel_cfg.o
                                                  build/kernel/alarm.o
almcb_cycle                                       build/./kernel_cfg.o
                                                  build/kernel/alarm.o
almcb_next                                        build/./kernel_cfg.o
                                                  build/kernel/alarm.o
almcb_prev                                        build/./kernel_cfg.o
                                                  build/kernel/alarm.o
alminib_almval                                    build/./kernel_cfg.o
                                                  build/kernel/alarm.o
alminib_autosta                                   build/./kernel_cfg.o
                                                  build/kernel/alarm.o
alminib_cback                                     build/./kernel_cfg.o
                                                  build/kernel/alarm.o
alminib_cntid                                     build/./kernel_cfg.o
                                                  build/kernel/alarm.o
alminib_cycle                                     build/./kernel_cfg.o
                                                  build/kernel/alarm.o
appmode                                           build/kernel/task.o
                                                  build/kernel/osctl.o
                                                  build/kernel/alarm.o
atexit                                            /home/adrian/CodeSourcery/Sourcery_CodeBench_Lite_for_ARM_EABI/bin/../lib/gcc/arm-none-eabi/4.6.3/../../../../arm-none-eabi/lib/thumb/libc.a(lib_a-atexit.o)
                                                  /home/adrian/CodeSourcery/Sourcery_CodeBench_Lite_for_ARM_EABI/bin/../lib/gcc/arm-none-eabi/4.6.3/../../../../arm-none-eabi/lib/thumb/libc.a(lib_a-__call_atexit.o)
avr_brainwash_string                              ../../ecrobot/../ecrobot/libecrobot.a(nxt_avr.oram)
battery_voltage                                   ../../ecrobot/../ecrobot/libecrobot.a(nxt_avr.oram)
                                                  ../../ecrobot/../ecrobot/libecrobot.a(ecrobot_interface.o)
bt_clear_arm7_cmd                                 ../../ecrobot/../ecrobot/libecrobot.a(bt.oram)
                                                  build/ecrobot_bluetooth.o
bt_get_mode                                       ../../ecrobot/../ecrobot/libecrobot.a(bt.oram)
bt_init                                           ../../ecrobot/../ecrobot/libecrobot.a(bt.oram)
                                                  ../../ecrobot/../ecrobot/libecrobot.a(flash_loader.oram)
bt_pending                                        ../../ecrobot/../ecrobot/libecrobot.a(bt.oram)
                                                  build/ecrobot_bluetooth.o
bt_read                                           ../../ecrobot/../ecrobot/libecrobot.a(bt.oram)
                                                  build/ecrobot_bluetooth.o
bt_receive                                        ../../ecrobot/../ecrobot/libecrobot.a(bt.oram)
                                                  build/ecrobot_bluetooth.o
bt_reset                                          ../../ecrobot/../ecrobot/libecrobot.a(bt.oram)
                                                  build/ecrobot_bluetooth.o
bt_send                                           ../../ecrobot/../ecrobot/libecrobot.a(bt.oram)
                                                  build/ecrobot_bluetooth.o
bt_set_arm7_cmd                                   ../../ecrobot/../ecrobot/libecrobot.a(bt.oram)
                                                  build/ecrobot_bluetooth.o
bt_set_reset_high                                 ../../ecrobot/../ecrobot/libecrobot.a(bt.oram)
bt_set_reset_low                                  ../../ecrobot/../ecrobot/libecrobot.a(bt.oram)
bt_start_ad_converter                             ../../ecrobot/../ecrobot/libecrobot.a(bt.oram)
bt_write                                          ../../ecrobot/../ecrobot/libecrobot.a(bt.oram)
                                                  build/ecrobot_bluetooth.o
buttons_get                                       ../../ecrobot/../ecrobot/libecrobot.a(nxt_avr.oram)
                                                  ../../ecrobot/../ecrobot/libecrobot.a(flash_loader.oram)
                                                  ../../ecrobot/../ecrobot/libecrobot.a(sensors.oram)
                                                  ../../ecrobot/../ecrobot/libecrobot.a(ecrobot_interface.o)
byte_fifo_clear                                   ../../ecrobot/../ecrobot/libecrobot.a(byte_fifo.oram)
byte_fifo_get                                     ../../ecrobot/../ecrobot/libecrobot.a(byte_fifo.oram)
                                                  ../../ecrobot/../ecrobot/libecrobot.a(uart.oram)
byte_fifo_init                                    ../../ecrobot/../ecrobot/libecrobot.a(byte_fifo.oram)
                                                  ../../ecrobot/../ecrobot/libecrobot.a(uart.oram)
byte_fifo_put                                     ../../ecrobot/../ecrobot/libecrobot.a(byte_fifo.oram)
                                                  ../../ecrobot/../ecrobot/libecrobot.a(uart.oram)
call_errorhook                                    build/kernel/osctl.o
                                                  build/kernel/task_manage.o
                                                  build/kernel/resource.o
                                                  build/kernel/event.o
                                                  build/kernel/alarm.o
call_posttaskhook                                 build/kernel/osctl.o
                                                  build/config/at91sam7s-gnu/cpu_support.oram
call_pretaskhook                                  build/kernel/osctl.o
                                                  build/config/at91sam7s-gnu/cpu_support.oram
callevel                                          build/config/at91sam7s-gnu/cpu_support.oram
                                                  build/kernel/task_manage.o
                                                  build/kernel/resource.o
                                                  build/kernel/osctl.o
                                                  build/kernel/interrupt.o
                                                  build/kernel/event.o
                                                  build/kernel/alarm.o
check_NXT_buttons                                 build/ecrobot_base.o
                                                  build/syslib/at91sam7s-gnu/lego_nxt/hw_sys_timer.oram
check_for_data                                    ../../ecrobot/../ecrobot/libecrobot.a(sensors.oram)
clear_flash_request                               ../../ecrobot/../ecrobot/libecrobot.a(flash_loader.oram)
cntcb_almque                                      build/./kernel_cfg.o
                                                  build/kernel/alarm.o
cntcb_curval                                      build/./kernel_cfg.o
                                                  build/kernel/alarm.o
cntinib_maxval                                    build/./kernel_cfg.o
                                                  build/kernel/alarm.o
cntinib_maxval2                                   build/./kernel_cfg.o
                                                  build/kernel/alarm.o
cntinib_mincyc                                    build/./kernel_cfg.o
                                                  build/kernel/alarm.o
cntinib_tickbase                                  build/./kernel_cfg.o
                                                  build/kernel/alarm.o
colorsensor_color_get                             ../../ecrobot/../ecrobot/libecrobot.a(colorsensor.o)
                                                  ../../ecrobot/../ecrobot/libecrobot.a(ecrobot_interface.o)
colorsensor_init                                  ../../ecrobot/../ecrobot/libecrobot.a(colorsensor.o)
                                                  ../../ecrobot/../ecrobot/libecrobot.a(ecrobot_interface.o)
colorsensor_light_full                            ../../ecrobot/../ecrobot/libecrobot.a(colorsensor.o)
                                                  ../../ecrobot/../ecrobot/libecrobot.a(ecrobot_interface.o)
colorsensor_light_get                             ../../ecrobot/../ecrobot/libecrobot.a(colorsensor.o)
                                                  ../../ecrobot/../ecrobot/libecrobot.a(ecrobot_interface.o)
colorsensor_rgb_get                               ../../ecrobot/../ecrobot/libecrobot.a(colorsensor.o)
                                                  ../../ecrobot/../ecrobot/libecrobot.a(ecrobot_interface.o)
colorsensor_term                                  ../../ecrobot/../ecrobot/libecrobot.a(colorsensor.o)
                                                  ../../ecrobot/../ecrobot/libecrobot.a(ecrobot_interface.o)
cpp_constructor                                   build/ecrobot_base.o
                                                  build/ecrobot.o
cpp_destructor                                    build/ecrobot_base.o
cpu_initialize                                    build/config/at91sam7s-gnu/cpu_config.o
                                                  build/kernel/osctl.o
cpu_terminate                                     build/config/at91sam7s-gnu/cpu_config.o
                                                  build/kernel/osctl.o
cyclic_alarm                                      build/./kernel_cfg.o
data                                              ../../ecrobot/../ecrobot/libecrobot.a(nxt_spi.oram)
data_abort_C                                      ../../ecrobot/../ecrobot/libecrobot.a(data_abort.oram)
                                                  build/ecrobot_init.o
data_abort_handler                                build/ecrobot_init.o
                                                  build/nxtvm/platform/nxt/vectors.o
                                                  build/nxtvm/platform/nxt/vectors.o
data_abort_pc                                     ../../ecrobot/../ecrobot/libecrobot.a(data_abort.oram)
                                                  build/ecrobot_init.o
debug1                                            build/config/at91sam7s-gnu/debug.o
debug2                                            build/config/at91sam7s-gnu/debug.o
default_fiq                                       build/config/at91sam7s-gnu/irq.oram
                                                  ../../ecrobot/../ecrobot/libecrobot.a(aic.oram)
default_isr                                       build/config/at91sam7s-gnu/irq.oram
                                                  ../../ecrobot/../ecrobot/libecrobot.a(aic.oram)
dirty                                             ../../ecrobot/../ecrobot/libecrobot.a(nxt_spi.oram)
disable_int                                       build/config/at91sam7s-gnu/cpu_support.oram
                                                  build/ecrobot.o
                                                  build/kernel/task_manage.o
                                                  build/kernel/resource.o
                                                  build/kernel/osctl.o
                                                  build/kernel/interrupt.o
                                                  build/kernel/event.o
                                                  build/kernel/alarm.o
dispatch                                          build/config/at91sam7s-gnu/cpu_support.oram
                                                  build/kernel/task_manage.o
                                                  build/kernel/resource.o
                                                  build/kernel/event.o
dispatch_r                                        build/config/at91sam7s-gnu/cpu_support.oram
display                                           ../../ecrobot/../ecrobot/libecrobot.a(nxt_spi.oram)
display_auto_update                               ../../ecrobot/../ecrobot/libecrobot.a(display.oram)
display_bios_status                               ../../ecrobot/../ecrobot/libecrobot.a(flash_loader.oram)
display_bitmap_copy                               ../../ecrobot/../ecrobot/libecrobot.a(display.oram)
                                                  build/ecrobot_base.o
display_char                                      ../../ecrobot/../ecrobot/libecrobot.a(display.oram)
display_clear                                     ../../ecrobot/../ecrobot/libecrobot.a(display.oram)
                                                  ../../ecrobot/../ecrobot/libecrobot.a(flash_loader.oram)
                                                  ../../ecrobot/../ecrobot/libecrobot.a(data_abort.oram)
                                                  ../../ecrobot/../ecrobot/libecrobot.a(ecrobot_interface.o)
                                                  build/tetrix.o
                                                  build/ecrobot.o
                                                  build/ecrobot_base.o
display_force_update                              ../../ecrobot/../ecrobot/libecrobot.a(display.oram)
                                                  ../../ecrobot/../ecrobot/libecrobot.a(data_abort.oram)
                                                  build/ecrobot_base.o
display_get_array                                 ../../ecrobot/../ecrobot/libecrobot.a(display.oram)
display_get_buffer                                ../../ecrobot/../ecrobot/libecrobot.a(display.oram)
display_goto_xy                                   ../../ecrobot/../ecrobot/libecrobot.a(display.oram)
                                                  ../../ecrobot/../ecrobot/libecrobot.a(data_abort.oram)
                                                  ../../ecrobot/../ecrobot/libecrobot.a(ecrobot_interface.o)
                                                  build/tetrix.o
                                                  build/ecrobot_base.o
display_hex                                       ../../ecrobot/../ecrobot/libecrobot.a(display.oram)
                                                  ../../ecrobot/../ecrobot/libecrobot.a(data_abort.oram)
                                                  build/ecrobot_base.o
display_init                                      ../../ecrobot/../ecrobot/libecrobot.a(display.oram)
                                                  ../../ecrobot/../ecrobot/libecrobot.a(flash_loader.oram)
display_int                                       ../../ecrobot/../ecrobot/libecrobot.a(display.oram)
                                                  ../../ecrobot/../ecrobot/libecrobot.a(ecrobot_interface.o)
                                                  build/tetrix.o
display_set_auto_update                           ../../ecrobot/../ecrobot/libecrobot.a(display.oram)
display_status_bar                                build/ecrobot_base.o
                                                  build/ecrobot.o
display_string                                    ../../ecrobot/../ecrobot/libecrobot.a(display.oram)
                                                  ../../ecrobot/../ecrobot/libecrobot.a(data_abort.oram)
                                                  ../../ecrobot/../ecrobot/libecrobot.a(ecrobot_interface.o)
                                                  build/tetrix.o
                                                  build/ecrobot_base.o
display_test                                      ../../ecrobot/../ecrobot/libecrobot.a(display.oram)
display_tick                                      ../../ecrobot/../ecrobot/libecrobot.a(display.oram)
display_unsigned                                  ../../ecrobot/../ecrobot/libecrobot.a(display.oram)
                                                  ../../ecrobot/../ecrobot/libecrobot.a(ecrobot_interface.o)
                                                  build/ecrobot_base.o
display_update                                    ../../ecrobot/../ecrobot/libecrobot.a(display.oram)
                                                  ../../ecrobot/../ecrobot/libecrobot.a(ecrobot_interface.o)
                                                  build/tetrix.o
                                                  build/ecrobot_base.o
display_x                                         ../../ecrobot/../ecrobot/libecrobot.a(display.oram)
display_y                                         ../../ecrobot/../ecrobot/libecrobot.a(display.oram)
ecrobot_adc_data_monitor                          ../../ecrobot/../ecrobot/libecrobot.a(ecrobot_interface.o)
ecrobot_bmp2lcd                                   ../../ecrobot/../ecrobot/libecrobot.a(ecrobot_interface.o)
                                                  build/ecrobot_base.o
ecrobot_bt_adc_data_logger                        ../../ecrobot/../ecrobot/libecrobot.a(ecrobot_interface.o)
ecrobot_bt_data_logger                            ../../ecrobot/../ecrobot/libecrobot.a(ecrobot_interface.o)
ecrobot_cal_color_sensor                          ../../ecrobot/../ecrobot/libecrobot.a(ecrobot_HiTechnic.o)
ecrobot_cal_compass_sensor                        ../../ecrobot/../ecrobot/libecrobot.a(ecrobot_HiTechnic.o)
ecrobot_debug                                     ../../ecrobot/../ecrobot/libecrobot.a(ecrobot_interface.o)
ecrobot_debug1                                    ../../ecrobot/../ecrobot/libecrobot.a(ecrobot_interface.o)
                                                  build/config/at91sam7s-gnu/debug.o
ecrobot_debug2                                    ../../ecrobot/../ecrobot/libecrobot.a(ecrobot_interface.o)
                                                  build/config/at91sam7s-gnu/debug.o
ecrobot_device_initialize                         build/tetrix.o
                                                  build/ecrobot.o
ecrobot_device_terminate                          build/tetrix.o
                                                  build/ecrobot.o
                                                  build/ecrobot_base.o
ecrobot_disconnect_usb                            ../../ecrobot/../ecrobot/libecrobot.a(ecrobot_usb.o)
ecrobot_exec_NXT_BIOS                             ../../ecrobot/../ecrobot/libecrobot.a(ecrobot_interface.o)
ecrobot_get_RCX_sensor                            ../../ecrobot/../ecrobot/libecrobot.a(ecrobot_interface.o)
ecrobot_get_RCX_touch_sensor                      ../../ecrobot/../ecrobot/libecrobot.a(ecrobot_interface.o)
ecrobot_get_accel_sensor                          ../../ecrobot/../ecrobot/libecrobot.a(ecrobot_HiTechnic.o)
ecrobot_get_battery_voltage                       ../../ecrobot/../ecrobot/libecrobot.a(ecrobot_interface.o)
                                                  build/ecrobot_base.o
ecrobot_get_bt_device_address                     build/ecrobot_bluetooth.o
ecrobot_get_bt_device_name                        build/ecrobot_bluetooth.o
ecrobot_get_bt_signal_strength                    build/ecrobot_bluetooth.o
ecrobot_get_bt_status                             build/ecrobot_bluetooth.o
                                                  ../../ecrobot/../ecrobot/libecrobot.a(ecrobot_interface.o)
ecrobot_get_button_state                          ../../ecrobot/../ecrobot/libecrobot.a(ecrobot_interface.o)
                                                  build/ecrobot.o
                                                  build/ecrobot_base.o
ecrobot_get_color_sensor                          ../../ecrobot/../ecrobot/libecrobot.a(ecrobot_HiTechnic.o)
ecrobot_get_compass_sensor                        ../../ecrobot/../ecrobot/libecrobot.a(ecrobot_HiTechnic.o)
ecrobot_get_gyro_sensor                           ../../ecrobot/../ecrobot/libecrobot.a(ecrobot_HiTechnic.o)
ecrobot_get_ir_seeker                             ../../ecrobot/../ecrobot/libecrobot.a(ecrobot_HiTechnic.o)
ecrobot_get_light_sensor                          ../../ecrobot/../ecrobot/libecrobot.a(ecrobot_interface.o)
ecrobot_get_motor_rev                             ../../ecrobot/../ecrobot/libecrobot.a(ecrobot_interface.o)
ecrobot_get_nxtcolorsensor_id                     ../../ecrobot/../ecrobot/libecrobot.a(ecrobot_interface.o)
ecrobot_get_nxtcolorsensor_light                  ../../ecrobot/../ecrobot/libecrobot.a(ecrobot_interface.o)
ecrobot_get_nxtcolorsensor_mode                   ../../ecrobot/../ecrobot/libecrobot.a(ecrobot_interface.o)
ecrobot_get_nxtcolorsensor_rgb                    ../../ecrobot/../ecrobot/libecrobot.a(ecrobot_interface.o)
ecrobot_get_prototype_analog_sensor               ../../ecrobot/../ecrobot/libecrobot.a(ecrobot_HiTechnic.o)
ecrobot_get_prototype_digital_sensor              ../../ecrobot/../ecrobot/libecrobot.a(ecrobot_HiTechnic.o)
ecrobot_get_prototype_sensor                      ../../ecrobot/../ecrobot/libecrobot.a(ecrobot_HiTechnic.o)
ecrobot_get_sonar_sensor                          ../../ecrobot/../ecrobot/libecrobot.a(ecrobot_interface.o)
ecrobot_get_sound_sensor                          ../../ecrobot/../ecrobot/libecrobot.a(ecrobot_interface.o)
ecrobot_get_systick_ms                            ../../ecrobot/../ecrobot/libecrobot.a(ecrobot_interface.o)
ecrobot_get_touch_sensor                          ../../ecrobot/../ecrobot/libecrobot.a(ecrobot_interface.o)
ecrobot_initDeviceStatus                          ../../ecrobot/../ecrobot/libecrobot.a(ecrobot_interface.o)
                                                  build/ecrobot.o
ecrobot_init_accel_sensor                         ../../ecrobot/../ecrobot/libecrobot.a(ecrobot_HiTechnic.o)
ecrobot_init_bt_connection                        build/ecrobot_bluetooth.o
ecrobot_init_bt_master                            build/ecrobot_bluetooth.o
ecrobot_init_bt_slave                             build/ecrobot_bluetooth.o
ecrobot_init_color_sensor                         ../../ecrobot/../ecrobot/libecrobot.a(ecrobot_HiTechnic.o)
ecrobot_init_compass_sensor                       ../../ecrobot/../ecrobot/libecrobot.a(ecrobot_HiTechnic.o)
ecrobot_init_i2c                                  ../../ecrobot/../ecrobot/libecrobot.a(ecrobot_interface.o)
                                                  ../../ecrobot/../ecrobot/libecrobot.a(ecrobot_HiTechnic.o)
ecrobot_init_ir_seeker                            ../../ecrobot/../ecrobot/libecrobot.a(ecrobot_HiTechnic.o)
ecrobot_init_nxtcolorsensor                       ../../ecrobot/../ecrobot/libecrobot.a(ecrobot_interface.o)
ecrobot_init_nxtstate                             ../../ecrobot/../ecrobot/libecrobot.a(ecrobot_interface.o)
                                                  build/ecrobot.o
ecrobot_init_prototype_sensor                     ../../ecrobot/../ecrobot/libecrobot.a(ecrobot_HiTechnic.o)
ecrobot_init_sonar_sensor                         ../../ecrobot/../ecrobot/libecrobot.a(ecrobot_interface.o)
ecrobot_init_tetrix                               ../../ecrobot/../ecrobot/libecrobot.a(ecrobot_HiTechnic.o)
                                                  build/tetrix.o
ecrobot_init_usb                                  ../../ecrobot/../ecrobot/libecrobot.a(ecrobot_usb.o)
                                                  ../../ecrobot/../ecrobot/libecrobot.a(flash_loader.oram)
ecrobot_is_ENTER_button_pressed                   ../../ecrobot/../ecrobot/libecrobot.a(ecrobot_interface.o)
ecrobot_is_RUN_button_pressed                     ../../ecrobot/../ecrobot/libecrobot.a(ecrobot_interface.o)
ecrobot_is_usb_connected                          ../../ecrobot/../ecrobot/libecrobot.a(ecrobot_usb.o)
ecrobot_poll_nxtstate                             ../../ecrobot/../ecrobot/libecrobot.a(ecrobot_interface.o)
                                                  build/ecrobot.o
                                                  build/ecrobot_base.o
ecrobot_process1ms_usb                            ../../ecrobot/../ecrobot/libecrobot.a(ecrobot_usb.o)
                                                  ../../ecrobot/../ecrobot/libecrobot.a(flash_loader.oram)
ecrobot_process_bg_nxtcolorsensor                 ../../ecrobot/../ecrobot/libecrobot.a(ecrobot_interface.o)
ecrobot_read_bt                                   build/ecrobot_bluetooth.o
ecrobot_read_bt_packet                            build/ecrobot_bluetooth.o
ecrobot_read_i2c                                  ../../ecrobot/../ecrobot/libecrobot.a(ecrobot_interface.o)
                                                  ../../ecrobot/../ecrobot/libecrobot.a(ecrobot_HiTechnic.o)
ecrobot_read_usb                                  ../../ecrobot/../ecrobot/libecrobot.a(ecrobot_usb.o)
                                                  ../../ecrobot/../ecrobot/libecrobot.a(flash_loader.oram)
ecrobot_restart_NXT                               ../../ecrobot/../ecrobot/libecrobot.a(ecrobot_interface.o)
ecrobot_send_bt                                   build/ecrobot_bluetooth.o
ecrobot_send_bt_packet                            build/ecrobot_bluetooth.o
                                                  ../../ecrobot/../ecrobot/libecrobot.a(ecrobot_interface.o)
ecrobot_send_i2c                                  ../../ecrobot/../ecrobot/libecrobot.a(ecrobot_interface.o)
                                                  ../../ecrobot/../ecrobot/libecrobot.a(ecrobot_HiTechnic.o)
ecrobot_send_prototype_digital_sensor             ../../ecrobot/../ecrobot/libecrobot.a(ecrobot_HiTechnic.o)
ecrobot_send_usb                                  ../../ecrobot/../ecrobot/libecrobot.a(ecrobot_usb.o)
                                                  ../../ecrobot/../ecrobot/libecrobot.a(flash_loader.oram)
ecrobot_setDeviceInitialized                      ../../ecrobot/../ecrobot/libecrobot.a(ecrobot_interface.o)
                                                  build/ecrobot.o
ecrobot_set_RCX_power_source                      ../../ecrobot/../ecrobot/libecrobot.a(ecrobot_interface.o)
ecrobot_set_bt_device_name                        build/ecrobot_bluetooth.o
ecrobot_set_bt_factory_settings                   build/ecrobot_bluetooth.o
ecrobot_set_light_sensor_active                   ../../ecrobot/../ecrobot/libecrobot.a(ecrobot_interface.o)
ecrobot_set_light_sensor_inactive                 ../../ecrobot/../ecrobot/libecrobot.a(ecrobot_interface.o)
ecrobot_set_motor_mode_speed                      ../../ecrobot/../ecrobot/libecrobot.a(ecrobot_interface.o)
ecrobot_set_motor_rev                             ../../ecrobot/../ecrobot/libecrobot.a(ecrobot_interface.o)
ecrobot_set_motor_speed                           ../../ecrobot/../ecrobot/libecrobot.a(ecrobot_interface.o)
ecrobot_set_name_usb                              ../../ecrobot/../ecrobot/libecrobot.a(ecrobot_usb.o)
                                                  ../../ecrobot/../ecrobot/libecrobot.a(flash_loader.oram)
ecrobot_set_nxtcolorsensor                        ../../ecrobot/../ecrobot/libecrobot.a(ecrobot_interface.o)
ecrobot_show_int                                  ../../ecrobot/../ecrobot/libecrobot.a(ecrobot_interface.o)
ecrobot_shutdown_NXT                              ../../ecrobot/../ecrobot/libecrobot.a(ecrobot_interface.o)
ecrobot_sint_var_monitor                          ../../ecrobot/../ecrobot/libecrobot.a(ecrobot_interface.o)
ecrobot_sound_tone                                ../../ecrobot/../ecrobot/libecrobot.a(ecrobot_interface.o)
ecrobot_sound_wav                                 ../../ecrobot/../ecrobot/libecrobot.a(ecrobot_interface.o)
ecrobot_status_monitor                            ../../ecrobot/../ecrobot/libecrobot.a(ecrobot_interface.o)
ecrobot_term_RCX_power_source                     ../../ecrobot/../ecrobot/libecrobot.a(ecrobot_interface.o)
ecrobot_term_accel_sensor                         ../../ecrobot/../ecrobot/libecrobot.a(ecrobot_HiTechnic.o)
ecrobot_term_bt_connection                        build/ecrobot_bluetooth.o
ecrobot_term_color_sensor                         ../../ecrobot/../ecrobot/libecrobot.a(ecrobot_HiTechnic.o)
ecrobot_term_compass_sensor                       ../../ecrobot/../ecrobot/libecrobot.a(ecrobot_HiTechnic.o)
ecrobot_term_i2c                                  ../../ecrobot/../ecrobot/libecrobot.a(ecrobot_interface.o)
                                                  ../../ecrobot/../ecrobot/libecrobot.a(ecrobot_HiTechnic.o)
ecrobot_term_ir_seeker                            ../../ecrobot/../ecrobot/libecrobot.a(ecrobot_HiTechnic.o)
ecrobot_term_nxtcolorsensor                       ../../ecrobot/../ecrobot/libecrobot.a(ecrobot_interface.o)
ecrobot_term_prototype_sensor                     ../../ecrobot/../ecrobot/libecrobot.a(ecrobot_HiTechnic.o)
ecrobot_term_sonar_sensor                         ../../ecrobot/../ecrobot/libecrobot.a(ecrobot_interface.o)
ecrobot_term_tetrix                               ../../ecrobot/../ecrobot/libecrobot.a(ecrobot_HiTechnic.o)
                                                  build/tetrix.o
ecrobot_term_usb                                  ../../ecrobot/../ecrobot/libecrobot.a(ecrobot_usb.o)
                                                  ../../ecrobot/../ecrobot/libecrobot.a(flash_loader.oram)
ecrobot_tetrix_battery                            ../../ecrobot/../ecrobot/libecrobot.a(ecrobot_HiTechnic.o)
                                                  build/tetrix.o
ecrobot_tetrix_motors                             ../../ecrobot/../ecrobot/libecrobot.a(ecrobot_HiTechnic.o)
                                                  build/tetrix.o
ecrobot_tetrix_servos                             ../../ecrobot/../ecrobot/libecrobot.a(ecrobot_HiTechnic.o)
                                                  build/tetrix.o
ecrobot_wait_i2c_ready                            ../../ecrobot/../ecrobot/libecrobot.a(ecrobot_interface.o)
                                                  ../../ecrobot/../ecrobot/libecrobot.a(ecrobot_HiTechnic.o)
enable_int                                        build/config/at91sam7s-gnu/cpu_support.oram
                                                  build/kernel/task_manage.o
                                                  build/kernel/resource.o
                                                  build/kernel/osctl.o
                                                  build/kernel/interrupt.o
                                                  build/kernel/event.o
                                                  build/kernel/alarm.o
end                                               build/syscalls.o
exec_NXT_BIOS                                     build/ecrobot_base.o
                                                  ../../ecrobot/../ecrobot/libecrobot.a(ecrobot_interface.o)
exec_addr                                         build/ecrobot_base.o
exec_app                                          ../../ecrobot/../ecrobot/libecrobot.a(flash_loader.oram)
execution_mode                                    build/ecrobot_base.o
                                                  build/ecrobot.o
exit_and_dispatch                                 build/config/at91sam7s-gnu/cpu_support.oram
                                                  build/kernel/task_manage.o
fiq_enable                                        ../../ecrobot/../ecrobot/libecrobot.a(interrupts.oram)
fiq_get_and_disable                               ../../ecrobot/../ecrobot/libecrobot.a(interrupts.oram)
flash_erase_range                                 ../../ecrobot/../ecrobot/libecrobot.a(flashprog.oram)
flash_loader                                      ../../ecrobot/../ecrobot/libecrobot.a(flash_loader.oram)
flash_set_mode                                    ../../ecrobot/../ecrobot/libecrobot.a(flashprog.oram)
flash_write                                       ../../ecrobot/../ecrobot/libecrobot.a(flashprog.oram)
flash_write_page                                  ../../ecrobot/../ecrobot/libecrobot.a(flashprog.oram)
                                                  ../../ecrobot/../ecrobot/libecrobot.a(flash_loader.oram)
free                                              /home/adrian/CodeSourcery/Sourcery_CodeBench_Lite_for_ARM_EABI/bin/../lib/gcc/arm-none-eabi/4.6.3/../../../../arm-none-eabi/lib/thumb/libc.a(lib_a-__call_atexit.o)
get_OS_flag                                       build/ecrobot_base.o
                                                  build/syslib/at91sam7s-gnu/lego_nxt/hw_sys_timer.oram
get_device_status                                 ../../ecrobot/../ecrobot/libecrobot.a(ecrobot_interface.o)
has_flash_request                                 ../../ecrobot/../ecrobot/libecrobot.a(flash_loader.oram)
i2c_busy                                          ../../ecrobot/../ecrobot/libecrobot.a(i2c.oram)
                                                  ../../ecrobot/../ecrobot/libecrobot.a(ecrobot_interface.o)
                                                  ../../ecrobot/../ecrobot/libecrobot.a(ecrobot_HiTechnic.o)
i2c_disable                                       ../../ecrobot/../ecrobot/libecrobot.a(i2c.oram)
                                                  ../../ecrobot/../ecrobot/libecrobot.a(ecrobot_interface.o)
                                                  ../../ecrobot/../ecrobot/libecrobot.a(ecrobot_HiTechnic.o)
i2c_enable                                        ../../ecrobot/../ecrobot/libecrobot.a(i2c.oram)
                                                  ../../ecrobot/../ecrobot/libecrobot.a(ecrobot_interface.o)
i2c_init                                          ../../ecrobot/../ecrobot/libecrobot.a(i2c.oram)
                                                  ../../ecrobot/../ecrobot/libecrobot.a(flash_loader.oram)
i2c_start_transaction                             ../../ecrobot/../ecrobot/libecrobot.a(i2c.oram)
                                                  ../../ecrobot/../ecrobot/libecrobot.a(ecrobot_interface.o)
                                                  ../../ecrobot/../ecrobot/libecrobot.a(ecrobot_HiTechnic.o)
i2c_timer_isr_C                                   ../../ecrobot/../ecrobot/libecrobot.a(i2c.oram)
                                                  build/config/at91sam7s-gnu/irq.oram
i2c_timer_isr_entry                               build/config/at91sam7s-gnu/irq.oram
                                                  ../../ecrobot/../ecrobot/libecrobot.a(i2c.oram)
init_OS_flag                                      build/ecrobot_base.o
                                                  build/ecrobot.o
init_sensors                                      ../../ecrobot/../ecrobot/libecrobot.a(sensors.oram)
                                                  ../../ecrobot/../ecrobot/libecrobot.a(flash_loader.oram)
int_return                                        build/config/at91sam7s-gnu/cpu_support.oram
interrupt_initialize                              build/kernel/interrupt.o
interrupts_enable                                 ../../ecrobot/../ecrobot/libecrobot.a(interrupts.oram)
                                                  ../../ecrobot/../ecrobot/libecrobot.a(flashprog.oram)
                                                  ../../ecrobot/../ecrobot/libecrobot.a(flash_loader.oram)
                                                  ../../ecrobot/../ecrobot/libecrobot.a(i2c.oram)
                                                  ../../ecrobot/../ecrobot/libecrobot.a(nxt_motors.oram)
                                                  ../../ecrobot/../ecrobot/libecrobot.a(nxt_spi.oram)
                                                  ../../ecrobot/../ecrobot/libecrobot.a(twi.oram)
                                                  ../../ecrobot/../ecrobot/libecrobot.a(udp.oram)
                                                  ../../ecrobot/../ecrobot/libecrobot.a(aic.oram)
                                                  ../../ecrobot/../ecrobot/libecrobot.a(systick.oram)
                                                  ../../ecrobot/../ecrobot/libecrobot.a(uart.oram)
interrupts_get_and_disable                        ../../ecrobot/../ecrobot/libecrobot.a(interrupts.oram)
                                                  ../../ecrobot/../ecrobot/libecrobot.a(flashprog.oram)
                                                  ../../ecrobot/../ecrobot/libecrobot.a(i2c.oram)
                                                  ../../ecrobot/../ecrobot/libecrobot.a(nxt_motors.oram)
                                                  ../../ecrobot/../ecrobot/libecrobot.a(nxt_spi.oram)
                                                  ../../ecrobot/../ecrobot/libecrobot.a(twi.oram)
                                                  ../../ecrobot/../ecrobot/libecrobot.a(udp.oram)
                                                  ../../ecrobot/../ecrobot/libecrobot.a(aic.oram)
                                                  ../../ecrobot/../ecrobot/libecrobot.a(systick.oram)
                                                  ../../ecrobot/../ecrobot/libecrobot.a(uart.oram)
ipl_maxisr2                                       build/./kernel_cfg.o
is_bios_version_equal                             ../../ecrobot/../ecrobot/libecrobot.a(flash_loader.oram)
isrcb_lastres                                     build/./kernel_cfg.o
                                                  build/kernel/resource.o
                                                  build/kernel/interrupt.o
isrinib_intpri                                    build/./kernel_cfg.o
                                                  build/kernel/resource.o
logvol                                            ../../ecrobot/../ecrobot/libecrobot.a(sound.oram)
main                                              build/ecrobot.o
                                                  build/ecrobot_init.o
make_active                                       build/kernel/task.o
                                                  build/kernel/task_manage.o
make_runnable                                     build/kernel/task.o
                                                  build/kernel/event.o
malloc                                            /home/adrian/CodeSourcery/Sourcery_CodeBench_Lite_for_ARM_EABI/bin/../lib/gcc/arm-none-eabi/4.6.3/../../../../arm-none-eabi/lib/thumb/libc.a(lib_a-__atexit.o)
memcpy                                            /home/adrian/CodeSourcery/Sourcery_CodeBench_Lite_for_ARM_EABI/bin/../lib/gcc/arm-none-eabi/4.6.3/../../../../arm-none-eabi/lib/thumb/libc.a(lib_a-memcpy.o)
                                                  ../../ecrobot/../ecrobot/libecrobot.a(ecrobot_usb.o)
                                                  ../../ecrobot/../ecrobot/libecrobot.a(bt.oram)
                                                  ../../ecrobot/../ecrobot/libecrobot.a(udp.oram)
memset                                            /home/adrian/CodeSourcery/Sourcery_CodeBench_Lite_for_ARM_EABI/bin/../lib/gcc/arm-none-eabi/4.6.3/../../../../arm-none-eabi/lib/thumb/libc.a(lib_a-memset.o)
                                                  ../../ecrobot/../ecrobot/libecrobot.a(ecrobot_usb.o)
                                                  ../../ecrobot/../ecrobot/libecrobot.a(flash_loader.oram)
                                                  ../../ecrobot/../ecrobot/libecrobot.a(nxt_avr.oram)
                                                  ../../ecrobot/../ecrobot/libecrobot.a(i2c.oram)
                                                  ../../ecrobot/../ecrobot/libecrobot.a(display.oram)
                                                  ../../ecrobot/../ecrobot/libecrobot.a(ecrobot_interface.o)
                                                  build/ecrobot_base.o
                                                  build/ecrobot_bluetooth.o
mode                                              ../../ecrobot/../ecrobot/libecrobot.a(nxt_spi.oram)
nextpri                                           build/kernel/task_manage.o
                                                  build/kernel/task.o
                                                  build/kernel/resource.o
nop                                               build/config/at91sam7s-gnu/cpu_support.oram
nxt_avr_1kHz_update                               ../../ecrobot/../ecrobot/libecrobot.a(nxt_avr.oram)
                                                  ../../ecrobot/../ecrobot/libecrobot.a(flashprog.oram)
                                                  ../../ecrobot/../ecrobot/libecrobot.a(systick.oram)
nxt_avr_firmware_update_mode                      ../../ecrobot/../ecrobot/libecrobot.a(nxt_avr.oram)
nxt_avr_init                                      ../../ecrobot/../ecrobot/libecrobot.a(nxt_avr.oram)
                                                  ../../ecrobot/../ecrobot/libecrobot.a(flash_loader.oram)
nxt_avr_link_init                                 ../../ecrobot/../ecrobot/libecrobot.a(nxt_avr.oram)
nxt_avr_power_down                                ../../ecrobot/../ecrobot/libecrobot.a(nxt_avr.oram)
                                                  ../../ecrobot/../ecrobot/libecrobot.a(flash_loader.oram)
                                                  build/ecrobot.o
                                                  build/ecrobot_base.o
nxt_avr_set_input_power                           ../../ecrobot/../ecrobot/libecrobot.a(nxt_avr.oram)
                                                  ../../ecrobot/../ecrobot/libecrobot.a(sensors1.oram)
                                                  ../../ecrobot/../ecrobot/libecrobot.a(sensors.oram)
                                                  ../../ecrobot/../ecrobot/libecrobot.a(ecrobot_interface.o)
nxt_avr_set_motor                                 ../../ecrobot/../ecrobot/libecrobot.a(nxt_avr.oram)
                                                  ../../ecrobot/../ecrobot/libecrobot.a(nxt_motors.oram)
nxt_device_init                                   ../../ecrobot/../ecrobot/libecrobot.a(flash_loader.oram)
                                                  build/ecrobot.o
nxt_lcd_command                                   ../../ecrobot/../ecrobot/libecrobot.a(nxt_lcd.oram)
nxt_lcd_enable                                    ../../ecrobot/../ecrobot/libecrobot.a(nxt_lcd.oram)
nxt_lcd_force_update                              ../../ecrobot/../ecrobot/libecrobot.a(nxt_lcd.oram)
                                                  ../../ecrobot/../ecrobot/libecrobot.a(display.oram)
nxt_lcd_init                                      ../../ecrobot/../ecrobot/libecrobot.a(nxt_lcd.oram)
                                                  ../../ecrobot/../ecrobot/libecrobot.a(display.oram)
nxt_lcd_inverse_display                           ../../ecrobot/../ecrobot/libecrobot.a(nxt_lcd.oram)
nxt_lcd_power_down                                ../../ecrobot/../ecrobot/libecrobot.a(nxt_lcd.oram)
                                                  ../../ecrobot/../ecrobot/libecrobot.a(flash_loader.oram)
                                                  build/ecrobot.o
                                                  build/ecrobot_base.o
nxt_lcd_power_up                                  ../../ecrobot/../ecrobot/libecrobot.a(nxt_lcd.oram)
nxt_lcd_reset                                     ../../ecrobot/../ecrobot/libecrobot.a(nxt_lcd.oram)
nxt_lcd_set_all_pixels_on                         ../../ecrobot/../ecrobot/libecrobot.a(nxt_lcd.oram)
nxt_lcd_set_bias_ratio                            ../../ecrobot/../ecrobot/libecrobot.a(nxt_lcd.oram)
nxt_lcd_set_col                                   ../../ecrobot/../ecrobot/libecrobot.a(nxt_lcd.oram)
nxt_lcd_set_cursor_update                         ../../ecrobot/../ecrobot/libecrobot.a(nxt_lcd.oram)
nxt_lcd_set_frame_rate                            ../../ecrobot/../ecrobot/libecrobot.a(nxt_lcd.oram)
nxt_lcd_set_map_control                           ../../ecrobot/../ecrobot/libecrobot.a(nxt_lcd.oram)
nxt_lcd_set_multiplex_rate                        ../../ecrobot/../ecrobot/libecrobot.a(nxt_lcd.oram)
nxt_lcd_set_page_address                          ../../ecrobot/../ecrobot/libecrobot.a(nxt_lcd.oram)
nxt_lcd_set_panel_loading                         ../../ecrobot/../ecrobot/libecrobot.a(nxt_lcd.oram)
nxt_lcd_set_pot                                   ../../ecrobot/../ecrobot/libecrobot.a(nxt_lcd.oram)
nxt_lcd_set_pump_control                          ../../ecrobot/../ecrobot/libecrobot.a(nxt_lcd.oram)
nxt_lcd_set_ram_address_control                   ../../ecrobot/../ecrobot/libecrobot.a(nxt_lcd.oram)
nxt_lcd_set_scroll_line                           ../../ecrobot/../ecrobot/libecrobot.a(nxt_lcd.oram)
nxt_lcd_set_temp_comp                             ../../ecrobot/../ecrobot/libecrobot.a(nxt_lcd.oram)
nxt_lcd_update                                    ../../ecrobot/../ecrobot/libecrobot.a(nxt_lcd.oram)
                                                  ../../ecrobot/../ecrobot/libecrobot.a(display.oram)
nxt_motor_1kHz_process                            ../../ecrobot/../ecrobot/libecrobot.a(nxt_motors.oram)
                                                  ../../ecrobot/../ecrobot/libecrobot.a(systick.oram)
nxt_motor_command                                 ../../ecrobot/../ecrobot/libecrobot.a(nxt_motors.oram)
nxt_motor_get_count                               ../../ecrobot/../ecrobot/libecrobot.a(nxt_motors.oram)
                                                  ../../ecrobot/../ecrobot/libecrobot.a(ecrobot_interface.o)
nxt_motor_init                                    ../../ecrobot/../ecrobot/libecrobot.a(nxt_motors.oram)
                                                  ../../ecrobot/../ecrobot/libecrobot.a(flash_loader.oram)
nxt_motor_isr_C                                   ../../ecrobot/../ecrobot/libecrobot.a(nxt_motors.oram)
                                                  build/config/at91sam7s-gnu/irq.oram
nxt_motor_isr_entry                               build/config/at91sam7s-gnu/irq.oram
                                                  ../../ecrobot/../ecrobot/libecrobot.a(nxt_motors.oram)
nxt_motor_quad_decode                             ../../ecrobot/../ecrobot/libecrobot.a(nxt_motors.oram)
nxt_motor_set_count                               ../../ecrobot/../ecrobot/libecrobot.a(nxt_motors.oram)
                                                  ../../ecrobot/../ecrobot/libecrobot.a(ecrobot_interface.o)
                                                  build/ecrobot.o
nxt_motor_set_speed                               ../../ecrobot/../ecrobot/libecrobot.a(nxt_motors.oram)
                                                  ../../ecrobot/../ecrobot/libecrobot.a(ecrobot_interface.o)
nxt_spi_init                                      ../../ecrobot/../ecrobot/libecrobot.a(nxt_spi.oram)
                                                  ../../ecrobot/../ecrobot/libecrobot.a(nxt_lcd.oram)
nxt_spi_refresh                                   ../../ecrobot/../ecrobot/libecrobot.a(nxt_spi.oram)
                                                  ../../ecrobot/../ecrobot/libecrobot.a(nxt_lcd.oram)
nxt_spi_set_display                               ../../ecrobot/../ecrobot/libecrobot.a(nxt_spi.oram)
                                                  ../../ecrobot/../ecrobot/libecrobot.a(nxt_lcd.oram)
nxt_spi_write                                     ../../ecrobot/../ecrobot/libecrobot.a(nxt_spi.oram)
                                                  ../../ecrobot/../ecrobot/libecrobot.a(nxt_lcd.oram)
nxtosek_splash_bmp_end                            ../../ecrobot/../ecrobot/libecrobot.a(nxtosek_splash.obmp)
nxtosek_splash_bmp_size                           ../../ecrobot/../ecrobot/libecrobot.a(nxtosek_splash.obmp)
nxtosek_splash_bmp_start                          ../../ecrobot/../ecrobot/libecrobot.a(nxtosek_splash.obmp)
                                                  build/ecrobot_base.o
object_initialize                                 build/./kernel_cfg.o
                                                  build/kernel/osctl.o
page                                              ../../ecrobot/../ecrobot/libecrobot.a(nxt_spi.oram)
poll_sensors                                      ../../ecrobot/../ecrobot/libecrobot.a(sensors.oram)
preempt                                           build/kernel/task.o
                                                  build/kernel/task_manage.o
                                                  build/kernel/resource.o
prefetch_abort_handler                            build/ecrobot_init.o
                                                  build/nxtvm/platform/nxt/vectors.o
                                                  build/nxtvm/platform/nxt/vectors.o
rand                                              /home/adrian/CodeSourcery/Sourcery_CodeBench_Lite_for_ARM_EABI/bin/../lib/gcc/arm-none-eabi/4.6.3/../../../../arm-none-eabi/lib/thumb/libc.a(lib_a-rand.o)
                                                  build/tetrix.o
read_buttons                                      ../../ecrobot/../ecrobot/libecrobot.a(sensors.oram)
rescb_prevpri                                     build/./kernel_cfg.o
                                                  build/kernel/resource.o
rescb_prevres                                     build/./kernel_cfg.o
                                                  build/kernel/resource.o
reserved_handler                                  build/ecrobot_init.o
                                                  build/nxtvm/platform/nxt/vectors.o
                                                  build/nxtvm/platform/nxt/vectors.o
resinib_ceilpri                                   build/./kernel_cfg.o
                                                  build/kernel/resource.o
resource_initialize                               build/kernel/resource.o
restart_NXT                                       build/ecrobot_base.o
                                                  ../../ecrobot/../ecrobot/libecrobot.a(ecrobot_interface.o)
runisr                                            build/config/at91sam7s-gnu/irq.oram
                                                  build/config/at91sam7s-gnu/cpu_support.oram
                                                  build/kernel/resource.o
                                                  build/kernel/interrupt.o
runtsk                                            build/config/at91sam7s-gnu/cpu_support.oram
                                                  build/kernel/task_manage.o
                                                  build/kernel/task.o
                                                  build/kernel/resource.o
                                                  build/kernel/event.o
sample                                            ../../ecrobot/../ecrobot/libecrobot.a(sound.oram)
sample_pattern                                    ../../ecrobot/../ecrobot/libecrobot.a(sound.oram)
schedtsk                                          build/config/at91sam7s-gnu/cpu_support.oram
                                                  build/kernel/task.o
search_schedtsk                                   build/kernel/task.o
                                                  build/kernel/task_manage.o
                                                  build/kernel/event.o
sensor_adc                                        ../../ecrobot/../ecrobot/libecrobot.a(nxt_avr.oram)
                                                  ../../ecrobot/../ecrobot/libecrobot.a(sensors1.oram)
                                                  ../../ecrobot/../ecrobot/libecrobot.a(sensors.oram)
                                                  ../../ecrobot/../ecrobot/libecrobot.a(ecrobot_interface.o)
                                                  ../../ecrobot/../ecrobot/libecrobot.a(ecrobot_HiTechnic.o)
sensor_pins                                       ../../ecrobot/../ecrobot/libecrobot.a(sensors1.oram)
                                                  ../../ecrobot/../ecrobot/libecrobot.a(colorsensor.o)
sensors                                           ../../ecrobot/../ecrobot/libecrobot.a(sensors.oram)
set_OS_flag                                       build/ecrobot_base.o
                                                  build/ecrobot.o
set_digi0                                         ../../ecrobot/../ecrobot/libecrobot.a(sensors.oram)
                                                  ../../ecrobot/../ecrobot/libecrobot.a(ecrobot_interface.o)
set_digi1                                         ../../ecrobot/../ecrobot/libecrobot.a(sensors.oram)
set_flash_request                                 ../../ecrobot/../ecrobot/libecrobot.a(flash_loader.oram)
                                                  build/ecrobot.o
                                                  build/ecrobot_base.o
show_bd_addr                                      build/ecrobot_base.o
                                                  build/ecrobot_bluetooth.o
show_bd_addr_err                                  build/ecrobot_base.o
                                                  build/ecrobot_bluetooth.o
show_main_screen                                  build/ecrobot_base.o
                                                  build/ecrobot.o
show_splash_screen                                build/ecrobot_base.o
                                                  build/ecrobot.o
shutdown_NXT                                      build/ecrobot_base.o
                                                  ../../ecrobot/../ecrobot/libecrobot.a(ecrobot_interface.o)
silence                                           ../../ecrobot/../ecrobot/libecrobot.a(sound.oram)
sine                                              ../../ecrobot/../ecrobot/libecrobot.a(sound.oram)
sound_disable                                     ../../ecrobot/../ecrobot/libecrobot.a(sound.oram)
sound_enable                                      ../../ecrobot/../ecrobot/libecrobot.a(sound.oram)
sound_fill_sample_buffer                          ../../ecrobot/../ecrobot/libecrobot.a(sound.oram)
sound_freq                                        ../../ecrobot/../ecrobot/libecrobot.a(sound.oram)
sound_freq_vol                                    ../../ecrobot/../ecrobot/libecrobot.a(sound.oram)
                                                  ../../ecrobot/../ecrobot/libecrobot.a(ecrobot_interface.o)
sound_get_time                                    ../../ecrobot/../ecrobot/libecrobot.a(sound.oram)
                                                  ../../ecrobot/../ecrobot/libecrobot.a(ecrobot_interface.o)
sound_init                                        ../../ecrobot/../ecrobot/libecrobot.a(sound.oram)
                                                  ../../ecrobot/../ecrobot/libecrobot.a(flash_loader.oram)
sound_interrupt_disable                           ../../ecrobot/../ecrobot/libecrobot.a(sound.oram)
sound_interrupt_enable                            ../../ecrobot/../ecrobot/libecrobot.a(sound.oram)
sound_isr_C                                       ../../ecrobot/../ecrobot/libecrobot.a(sound.oram)
                                                  build/config/at91sam7s-gnu/irq.oram
sound_isr_entry                                   build/config/at91sam7s-gnu/irq.oram
                                                  ../../ecrobot/../ecrobot/libecrobot.a(sound.oram)
sound_mode                                        ../../ecrobot/../ecrobot/libecrobot.a(sound.oram)
sound_play_sample                                 ../../ecrobot/../ecrobot/libecrobot.a(sound.oram)
                                                  ../../ecrobot/../ecrobot/libecrobot.a(ecrobot_interface.o)
sp_get                                            ../../ecrobot/../ecrobot/libecrobot.a(sensors1.oram)
                                                  ../../ecrobot/../ecrobot/libecrobot.a(colorsensor.o)
sp_init                                           ../../ecrobot/../ecrobot/libecrobot.a(sensors1.oram)
sp_read                                           ../../ecrobot/../ecrobot/libecrobot.a(sensors1.oram)
                                                  ../../ecrobot/../ecrobot/libecrobot.a(colorsensor.o)
sp_reset                                          ../../ecrobot/../ecrobot/libecrobot.a(sensors1.oram)
                                                  ../../ecrobot/../ecrobot/libecrobot.a(colorsensor.o)
sp_set                                            ../../ecrobot/../ecrobot/libecrobot.a(sensors1.oram)
                                                  ../../ecrobot/../ecrobot/libecrobot.a(colorsensor.o)
sp_set_mode                                       ../../ecrobot/../ecrobot/libecrobot.a(sensors1.oram)
                                                  ../../ecrobot/../ecrobot/libecrobot.a(colorsensor.o)
sp_set_power                                      ../../ecrobot/../ecrobot/libecrobot.a(sensors1.oram)
spi_isr_C                                         ../../ecrobot/../ecrobot/libecrobot.a(nxt_spi.oram)
                                                  build/config/at91sam7s-gnu/irq.oram
spi_isr_entry                                     build/config/at91sam7s-gnu/irq.oram
                                                  ../../ecrobot/../ecrobot/libecrobot.a(nxt_spi.oram)
spurious_isr                                      build/config/at91sam7s-gnu/irq.oram
                                                  ../../ecrobot/../ecrobot/libecrobot.a(aic.oram)
srand                                             /home/adrian/CodeSourcery/Sourcery_CodeBench_Lite_for_ARM_EABI/bin/../lib/gcc/arm-none-eabi/4.6.3/../../../../arm-none-eabi/lib/thumb/libc.a(lib_a-rand.o)
start                                             build/ecrobot_init.o
                                                  build/nxtvm/platform/nxt/vectors.o
                                                  build/nxtvm/platform/nxt/vectors.o
                                                  build/ecrobot_base.o
start_dispatch                                    build/config/at91sam7s-gnu/cpu_support.oram
                                                  build/kernel/osctl.o
strcmp                                            /home/adrian/CodeSourcery/Sourcery_CodeBench_Lite_for_ARM_EABI/bin/../lib/gcc/arm-none-eabi/4.6.3/../../../../arm-none-eabi/lib/thumb/libc.a(lib_a-strcmp.o)
                                                  ../../ecrobot/../ecrobot/libecrobot.a(ecrobot_usb.o)
                                                  ../../ecrobot/../ecrobot/libecrobot.a(flash_loader.oram)
strcpy                                            /home/adrian/CodeSourcery/Sourcery_CodeBench_Lite_for_ARM_EABI/bin/../lib/gcc/arm-none-eabi/4.6.3/../../../../arm-none-eabi/lib/thumb/libc.a(lib_a-strcpy.o)
                                                  ../../ecrobot/../ecrobot/libecrobot.a(ecrobot_usb.o)
                                                  ../../ecrobot/../ecrobot/libecrobot.a(flash_loader.oram)
                                                  build/ecrobot_base.o
strlen                                            /home/adrian/CodeSourcery/Sourcery_CodeBench_Lite_for_ARM_EABI/bin/../lib/gcc/arm-none-eabi/4.6.3/../../../../arm-none-eabi/lib/thumb/libc.a(lib_a-strlen.o)
                                                  ../../ecrobot/../ecrobot/libecrobot.a(nxt_avr.oram)
                                                  build/ecrobot_base.o
strncpy                                           /home/adrian/CodeSourcery/Sourcery_CodeBench_Lite_for_ARM_EABI/bin/../lib/gcc/arm-none-eabi/4.6.3/../../../../arm-none-eabi/lib/thumb/libc.a(lib_a-strncpy.o)
                                                  build/ecrobot_bluetooth.o
sus_all_cnt                                       build/kernel/osctl.o
                                                  build/kernel/interrupt.o
swi_handler                                       build/ecrobot_init.o
                                                  build/nxtvm/platform/nxt/vectors.o
                                                  build/nxtvm/platform/nxt/vectors.o
sys_exit                                          build/config/at91sam7s-gnu/lego_nxt/sys_config.o
                                                  build/kernel/osctl.o
sys_initialize                                    build/config/at91sam7s-gnu/lego_nxt/sys_config.o
                                                  build/kernel/osctl.o
systick_get_ms                                    ../../ecrobot/../ecrobot/libecrobot.a(systick.oram)
                                                  ../../ecrobot/../ecrobot/libecrobot.a(flashprog.oram)
                                                  ../../ecrobot/../ecrobot/libecrobot.a(display.oram)
                                                  ../../ecrobot/../ecrobot/libecrobot.a(ecrobot_interface.o)
                                                  build/ecrobot.o
                                                  build/ecrobot_base.o
                                                  build/ecrobot_bluetooth.o
systick_init                                      ../../ecrobot/../ecrobot/libecrobot.a(systick.oram)
                                                  ../../ecrobot/../ecrobot/libecrobot.a(flash_loader.oram)
systick_isr_C                                     ../../ecrobot/../ecrobot/libecrobot.a(systick.oram)
                                                  build/config/at91sam7s-gnu/irq.oram
systick_isr_C1                                    build/syslib/at91sam7s-gnu/lego_nxt/hw_sys_timer.oram
                                                  build/config/at91sam7s-gnu/irq.oram
systick_isr_entry                                 build/config/at91sam7s-gnu/irq.oram
                                                  ../../ecrobot/../ecrobot/libecrobot.a(systick.oram)
systick_low_priority_C                            ../../ecrobot/../ecrobot/libecrobot.a(systick.oram)
                                                  build/syslib/at91sam7s-gnu/lego_nxt/hw_sys_timer.oram
systick_low_priority_entry                        build/config/at91sam7s-gnu/irq.oram
                                                  ../../ecrobot/../ecrobot/libecrobot.a(systick.oram)
systick_resume                                    ../../ecrobot/../ecrobot/libecrobot.a(systick.oram)
                                                  ../../ecrobot/../ecrobot/libecrobot.a(flashprog.oram)
systick_suspend                                   ../../ecrobot/../ecrobot/libecrobot.a(systick.oram)
                                                  ../../ecrobot/../ecrobot/libecrobot.a(flashprog.oram)
systick_test                                      ../../ecrobot/../ecrobot/libecrobot.a(systick.oram)
systick_wait_ms                                   ../../ecrobot/../ecrobot/libecrobot.a(systick.oram)
                                                  ../../ecrobot/../ecrobot/libecrobot.a(flashprog.oram)
                                                  ../../ecrobot/../ecrobot/libecrobot.a(flash_loader.oram)
                                                  ../../ecrobot/../ecrobot/libecrobot.a(nxt_lcd.oram)
                                                  ../../ecrobot/../ecrobot/libecrobot.a(bt.oram)
                                                  ../../ecrobot/../ecrobot/libecrobot.a(display.oram)
                                                  ../../ecrobot/../ecrobot/libecrobot.a(udp.oram)
                                                  ../../ecrobot/../ecrobot/libecrobot.a(colorsensor.o)
                                                  build/ecrobot.o
                                                  build/ecrobot_base.o
                                                  build/ecrobot_bluetooth.o
systick_wait_ns                                   ../../ecrobot/../ecrobot/libecrobot.a(systick.oram)
                                                  ../../ecrobot/../ecrobot/libecrobot.a(twi.oram)
task_initialize                                   build/kernel/task.o
                                                  build/./kernel_cfg.o
tcb_actcnt                                        build/./kernel_cfg.o
                                                  build/kernel/task_manage.o
                                                  build/kernel/task.o
tcb_curevt                                        build/./kernel_cfg.o
                                                  build/kernel/task.o
                                                  build/kernel/event.o
tcb_curpri                                        build/config/at91sam7s-gnu/cpu_support.oram
                                                  build/./kernel_cfg.o
                                                  build/kernel/task_manage.o
                                                  build/kernel/task.o
                                                  build/kernel/resource.o
                                                  build/kernel/event.o
tcb_lastres                                       build/./kernel_cfg.o
                                                  build/kernel/task_manage.o
                                                  build/kernel/task.o
                                                  build/kernel/resource.o
                                                  build/kernel/event.o
tcb_next                                          build/./kernel_cfg.o
                                                  build/kernel/task.o
tcb_tstat                                         build/./kernel_cfg.o
                                                  build/kernel/task_manage.o
                                                  build/kernel/task.o
                                                  build/kernel/event.o
tcb_waievt                                        build/./kernel_cfg.o
                                                  build/kernel/task.o
                                                  build/kernel/event.o
tcxb_pc                                           build/config/at91sam7s-gnu/cpu_support.oram
                                                  build/./kernel_cfg.o
                                                  build/kernel/task.o
tcxb_sp                                           build/config/at91sam7s-gnu/cpu_support.oram
                                                  build/./kernel_cfg.o
                                                  build/kernel/task.o
terminate_flash                                   ../../ecrobot/../ecrobot/libecrobot.a(flash_loader.oram)
tinib_autoact                                     build/./kernel_cfg.o
                                                  build/kernel/task.o
tinib_exepri                                      build/./kernel_cfg.o
                                                  build/config/at91sam7s-gnu/cpu_support.oram
                                                  build/kernel/task_manage.o
                                                  build/kernel/event.o
tinib_inipri                                      build/./kernel_cfg.o
                                                  build/kernel/task_manage.o
                                                  build/kernel/task.o
                                                  build/kernel/resource.o
                                                  build/kernel/event.o
tinib_maxact                                      build/./kernel_cfg.o
                                                  build/kernel/task_manage.o
tinib_stk                                         build/./kernel_cfg.o
                                                  build/kernel/task.o
tinib_stksz                                       build/./kernel_cfg.o
                                                  build/kernel/task.o
tinib_task                                        build/./kernel_cfg.o
                                                  build/config/at91sam7s-gnu/cpu_support.oram
tnum_alarm                                        build/./kernel_cfg.o
                                                  build/kernel/alarm.o
tnum_counter                                      build/./kernel_cfg.o
                                                  build/kernel/alarm.o
tnum_exttask                                      build/./kernel_cfg.o
                                                  build/kernel/task.o
                                                  build/kernel/event.o
tnum_isr2                                         build/./kernel_cfg.o
                                                  build/kernel/interrupt.o
tnum_resource                                     build/./kernel_cfg.o
                                                  build/kernel/resource.o
tnum_task                                         build/./kernel_cfg.o
                                                  build/kernel/task_manage.o
                                                  build/kernel/task.o
                                                  build/kernel/event.o
twi_init                                          ../../ecrobot/../ecrobot/libecrobot.a(twi.oram)
                                                  ../../ecrobot/../ecrobot/libecrobot.a(nxt_avr.oram)
twi_isr_C                                         ../../ecrobot/../ecrobot/libecrobot.a(twi.oram)
                                                  build/config/at91sam7s-gnu/irq.oram
twi_isr_entry                                     build/config/at91sam7s-gnu/irq.oram
                                                  ../../ecrobot/../ecrobot/libecrobot.a(twi.oram)
twi_reset                                         ../../ecrobot/../ecrobot/libecrobot.a(twi.oram)
twi_start_read                                    ../../ecrobot/../ecrobot/libecrobot.a(twi.oram)
                                                  ../../ecrobot/../ecrobot/libecrobot.a(nxt_avr.oram)
twi_start_write                                   ../../ecrobot/../ecrobot/libecrobot.a(twi.oram)
                                                  ../../ecrobot/../ecrobot/libecrobot.a(nxt_avr.oram)
twi_status                                        ../../ecrobot/../ecrobot/libecrobot.a(twi.oram)
                                                  ../../ecrobot/../ecrobot/libecrobot.a(flashprog.oram)
                                                  ../../ecrobot/../ecrobot/libecrobot.a(nxt_avr.oram)
uart                                              ../../ecrobot/../ecrobot/libecrobot.a(uart.oram)
uart_CheckBreak                                   ../../ecrobot/../ecrobot/libecrobot.a(uart.oram)
uart_clear_break                                  ../../ecrobot/../ecrobot/libecrobot.a(uart.oram)
uart_close                                        ../../ecrobot/../ecrobot/libecrobot.a(uart.oram)
uart_get_byte                                     ../../ecrobot/../ecrobot/libecrobot.a(uart.oram)
uart_init                                         ../../ecrobot/../ecrobot/libecrobot.a(uart.oram)
uart_isr_C_0                                      ../../ecrobot/../ecrobot/libecrobot.a(uart.oram)
                                                  build/config/at91sam7s-gnu/irq.oram
uart_isr_C_1                                      ../../ecrobot/../ecrobot/libecrobot.a(uart.oram)
                                                  build/config/at91sam7s-gnu/irq.oram
uart_isr_entry_0                                  build/config/at91sam7s-gnu/irq.oram
                                                  ../../ecrobot/../ecrobot/libecrobot.a(uart.oram)
uart_isr_entry_1                                  build/config/at91sam7s-gnu/irq.oram
uart_put_byte                                     ../../ecrobot/../ecrobot/libecrobot.a(uart.oram)
uart_put_str                                      ../../ecrobot/../ecrobot/libecrobot.a(uart.oram)
uart_set_break                                    ../../ecrobot/../ecrobot/libecrobot.a(uart.oram)
uart_us0_init_irq                                 ../../ecrobot/../ecrobot/libecrobot.a(uart.oram)
uart_us0_interrupts_enable                        ../../ecrobot/../ecrobot/libecrobot.a(uart.oram)
udp_disable                                       ../../ecrobot/../ecrobot/libecrobot.a(udp.oram)
                                                  ../../ecrobot/../ecrobot/libecrobot.a(ecrobot_usb.o)
udp_enable                                        ../../ecrobot/../ecrobot/libecrobot.a(udp.oram)
                                                  ../../ecrobot/../ecrobot/libecrobot.a(ecrobot_usb.o)
udp_init                                          ../../ecrobot/../ecrobot/libecrobot.a(udp.oram)
                                                  ../../ecrobot/../ecrobot/libecrobot.a(ecrobot_usb.o)
udp_isr_C                                         ../../ecrobot/../ecrobot/libecrobot.a(udp.oram)
                                                  build/config/at91sam7s-gnu/irq.oram
udp_isr_entry                                     build/config/at91sam7s-gnu/irq.oram
                                                  ../../ecrobot/../ecrobot/libecrobot.a(udp.oram)
udp_read                                          ../../ecrobot/../ecrobot/libecrobot.a(udp.oram)
                                                  ../../ecrobot/../ecrobot/libecrobot.a(ecrobot_usb.o)
udp_reset                                         ../../ecrobot/../ecrobot/libecrobot.a(udp.oram)
udp_set_name                                      ../../ecrobot/../ecrobot/libecrobot.a(udp.oram)
                                                  ../../ecrobot/../ecrobot/libecrobot.a(ecrobot_usb.o)
udp_set_serialno                                  ../../ecrobot/../ecrobot/libecrobot.a(udp.oram)
                                                  ../../ecrobot/../ecrobot/libecrobot.a(ecrobot_usb.o)
udp_status                                        ../../ecrobot/../ecrobot/libecrobot.a(udp.oram)
                                                  ../../ecrobot/../ecrobot/libecrobot.a(ecrobot_usb.o)
udp_write                                         ../../ecrobot/../ecrobot/libecrobot.a(udp.oram)
                                                  ../../ecrobot/../ecrobot/libecrobot.a(ecrobot_usb.o)
undef_handler                                     build/ecrobot_init.o
                                                  build/nxtvm/platform/nxt/vectors.o
                                                  build/nxtvm/platform/nxt/vectors.o
unset_digi0                                       ../../ecrobot/../ecrobot/libecrobot.a(sensors.oram)
                                                  ../../ecrobot/../ecrobot/libecrobot.a(ecrobot_interface.o)
unset_digi1                                       ../../ecrobot/../ecrobot/libecrobot.a(sensors.oram)
user_1ms_isr_type2                                build/tetrix.o
                                                  build/syslib/at91sam7s-gnu/lego_nxt/hw_sys_timer.oram
